Certificate:
    Data:
        Version: 3 (0x2)
        Serial Number:
            86:b8:b3:82:4e:b9:6c:49
        Signature Algorithm: sha1WithRSAEncryption
        Issuer: C=BE, ST=Vlaams-Brabant, O=Siemens, OU=Siemens IT Solutions & Services, CN=SIS Root CA
        Validity
            Not Before: Jun  7 14:56:23 2010 GMT
            Not After : Jun  4 14:56:23 2020 GMT
        Subject: C=BE, ST=Vlaams-Brabant, O=Siemens, OU=Siemens IT Solutions & Services, CN=SIS Root CA
        Subject Public Key Info:
            Public Key Algorithm: rsaEncryption
                Public-Key: (2048 bit)
                Modulus:
                    00:ab:9a:fc:a4:59:8f:2b:45:5d:0e:ba:c6:aa:25:
                    ea:3a:b1:05:34:58:dc:fd:58:ad:46:d8:ce:7d:17:
                    c0:81:20:fe:a2:59:dc:4a:68:40:0a:cb:d7:94:99:
                    d2:ad:55:6c:f7:45:0a:7c:bf:ea:b7:49:83:ae:36:
                    65:3f:9c:99:85:b1:05:2f:77:95:a7:87:91:55:e1:
                    fe:a0:8b:a2:40:b6:18:31:ed:8f:21:d5:a9:1f:1d:
                    f1:b7:8c:1d:5e:c9:72:a2:03:a1:e9:da:4c:44:8f:
                    c5:8d:53:3a:b0:43:1d:f7:e2:0a:ad:74:12:88:8f:
                    4b:d9:3f:32:ca:43:9b:5d:d7:2c:55:e3:e3:48:a9:
                    57:4d:04:76:13:c6:9b:c2:fc:c3:1e:cb:13:f6:51:
                    b3:40:57:00:e2:70:3e:00:da:01:27:61:ef:20:60:
                    27:26:a1:46:ac:a2:ca:e4:63:80:b1:1b:eb:32:03:
                    90:40:dc:3d:51:ad:07:e8:a6:a7:44:97:f5:5f:c6:
                    4f:40:bf:f0:4e:82:a1:01:8f:00:be:e6:73:eb:a2:
                    db:03:d9:05:a4:f4:b5:4d:16:27:03:c0:7a:e7:b6:
                    8f:54:2a:ed:01:05:f2:c5:22:80:b3:04:e6:65:cd:
                    99:4c:4d:3d:3c:6b:6a:f0:a5:16:2b:a4:60:16:29:
                    1c:ab
                Exponent: 65537 (0x10001)
        X509v3 extensions:
            X509v3 Subject Key Identifier: 
                CE:C5:78:1F:46:68:83:8E:04:0B:06:2C:81:BB:59:E1:76:78:83:9B
            X509v3 Authority Key Identifier: 
                keyid:CE:C5:78:1F:46:68:83:8E:04:0B:06:2C:81:BB:59:E1:76:78:83:9B

            X509v3 Basic Constraints: critical
                CA:TRUE
            X509v3 Key Usage: critical
                Certificate Sign, CRL Sign
    Signature Algorithm: sha1WithRSAEncryption
        97:9d:8d:0d:bc:66:bd:12:7a:9b:dd:98:42:6f:54:af:4e:8d:
        1d:27:e5:e8:40:7c:d4:dc:49:d6:91:77:96:1d:f0:b7:1e:74:
        9e:9d:ec:63:06:47:85:58:9f:5c:06:1b:13:c7:6e:62:9e:ba:
        73:f2:f6:79:59:2b:14:7c:e2:1e:f5:22:85:d2:8c:1a:48:2c:
        df:15:ba:ee:63:f1:eb:8b:4a:64:f1:84:4f:36:4a:ea:5b:72:
        61:7e:69:aa:a6:bb:ad:a2:72:79:ae:d7:51:22:13:d3:85:97:
        94:ae:93:59:d0:2f:d3:49:f4:ea:5c:a0:45:3b:ce:4a:3f:46:
        60:d1:e7:6a:d6:96:80:3b:ad:06:80:9c:08:d9:f5:fc:92:2f:
        5e:29:bd:7b:74:35:70:2a:85:d7:3c:88:4d:18:20:ee:51:d0:
        24:55:41:2b:44:69:e4:19:5e:f7:19:e5:e8:cf:a5:b3:00:be:
        c9:e5:11:86:be:38:52:c8:09:44:ca:57:34:61:ce:f5:6d:9c:
        1b:ce:4b:d4:53:23:9b:ba:dc:08:d6:7e:45:f6:dc:e7:46:33:
        07:7f:50:ea:2e:c4:da:0c:74:a9:3a:c4:3b:26:68:8c:7f:ed:
        4e:26:5c:e4:85:65:1b:c9:44:21:07:a4:d7:b7:08:56:0d:41:
        db:b9:d4:e6
-----BEGIN CERTIFICATE-----
MIID1jCCAr6gAwIBAgIJAIa4s4JOuWxJMA0GCSqGSIb3DQEBBQUAMHgxCzAJBgNV
BAYTAkJFMRcwFQYDVQQIDA5WbGFhbXMtQnJhYmFudDEQMA4GA1UECgwHU2llbWVu
czEoMCYGA1UECwwfU2llbWVucyBJVCBTb2x1dGlvbnMgJiBTZXJ2aWNlczEUMBIG
A1UEAwwLU0lTIFJvb3QgQ0EwHhcNMTAwNjA3MTQ1NjIzWhcNMjAwNjA0MTQ1NjIz
WjB4MQswCQYDVQQGEwJCRTEXMBUGA1UECAwOVmxhYW1zLUJyYWJhbnQxEDAOBgNV
BAoMB1NpZW1lbnMxKDAmBgNVBAsMH1NpZW1lbnMgSVQgU29sdXRpb25zICYgU2Vy
dmljZXMxFDASBgNVBAMMC1NJUyBSb290IENBMIIBIjANBgkqhkiG9w0BAQEFAAOC
AQ8AMIIBCgKCAQEAq5r8pFmPK0VdDrrGqiXqOrEFNFjc/VitRtjOfRfAgSD+olnc
SmhACsvXlJnSrVVs90UKfL/qt0mDrjZlP5yZhbEFL3eVp4eRVeH+oIuiQLYYMe2P
IdWpHx3xt4wdXslyogOh6dpMRI/FjVM6sEMd9+IKrXQSiI9L2T8yykObXdcsVePj
SKlXTQR2E8abwvzDHssT9lGzQFcA4nA+ANoBJ2HvIGAnJqFGrKLK5GOAsRvrMgOQ
QNw9Ua0H6KanRJf1X8ZPQL/wToKhAY8AvuZz66LbA9kFpPS1TRYnA8B657aPVCrt
AQXyxSKAswTmZc2ZTE09PGtq8KUWK6RgFikcqwIDAQABo2MwYTAdBgNVHQ4EFgQU
zsV4H0Zog44ECwYsgbtZ4XZ4g5swHwYDVR0jBBgwFoAUzsV4H0Zog44ECwYsgbtZ
4XZ4g5swDwYDVR0TAQH/BAUwAwEB/zAOBgNVHQ8BAf8EBAMCAQYwDQYJKoZIhvcN
AQEFBQADggEBAJedjQ28Zr0SepvdmEJvVK9OjR0n5ehAfNTcSdaRd5Yd8LcedJ6d
7GMGR4VYn1wGGxPHbmKeunPy9nlZKxR84h71IoXSjBpILN8Vuu5j8euLSmTxhE82
SupbcmF+aaqmu62icnmu11EiE9OFl5Suk1nQL9NJ9OpcoEU7zko/RmDR52rWloA7
rQaAnAjZ9fySL14pvXt0NXAqhdc8iE0YIO5R0CRVQStEaeQZXvcZ5ejPpbMAvsnl
EYa+OFLICUTKVzRhzvVtnBvOS9RTI5u63AjWfkX23OdGMwd/UOouxNoMdKk6xDsm
aIx/7U4mXOSFZRvJRCEHpNe3CFYNQdu51OY=
-----END CERTIFICATE-----
