Certificate:
    Data:
        Version: 3 (0x2)
        Serial Number:
            b6:ef:12:de:0f:14:f2:74
        Signature Algorithm: sha1WithRSAEncryption
        Issuer: C=BE, ST=Vlaams-Babant, O=Siemens, OU=Siemens IT Solutions & Services, CN=SIS Untrusted Root CA
        Validity
            Not Before: Jun  8 13:07:11 2010 GMT
            Not After : Jun  5 13:07:11 2020 GMT
        Subject: C=BE, ST=Vlaams-Babant, O=Siemens, OU=Siemens IT Solutions & Services, CN=SIS Untrusted Root CA
        Subject Public Key Info:
            Public Key Algorithm: rsaEncryption
                Public-Key: (2048 bit)
                Modulus:
                    00:cc:a2:59:71:ac:9e:6d:7d:f4:44:41:b4:bb:c2:
                    f1:9a:e9:20:ba:be:b4:49:78:f6:ca:28:1a:c8:ef:
                    7d:81:92:35:9d:58:8a:f9:0a:ce:97:fd:99:2c:c5:
                    14:e1:71:15:44:c3:d5:3f:36:39:fe:aa:95:99:63:
                    60:1b:b3:fe:20:f2:d3:a0:99:55:2e:0e:00:06:8a:
                    44:62:be:3f:2d:e5:b5:81:e0:7c:bd:e3:f6:ca:4f:
                    7a:3a:dd:fb:b3:84:22:e6:fb:6b:34:03:7c:79:7c:
                    e3:32:9a:65:15:27:1b:c2:09:30:65:f2:6a:cc:6a:
                    04:dc:1d:40:d1:78:2c:83:2c:46:c2:e4:f3:e6:6b:
                    07:3a:02:68:24:b7:bc:3b:1e:65:1b:f7:1a:9f:35:
                    e7:02:c4:9a:f5:41:0e:19:75:76:bd:be:a7:ee:93:
                    29:8d:f0:d3:90:f9:6b:7e:b5:5a:14:c4:c3:41:e8:
                    99:68:03:0a:29:59:c3:59:9b:1a:3a:6a:8d:72:05:
                    71:22:36:36:53:35:6d:99:0e:b0:91:ca:d7:eb:93:
                    28:85:de:5b:c0:66:2c:54:51:74:fa:27:8d:dc:02:
                    67:a3:26:d7:62:7d:9f:5b:fc:32:6e:16:8c:09:b3:
                    92:6f:ba:59:24:c9:76:da:28:2a:4c:4b:13:83:e3:
                    ab:61
                Exponent: 65537 (0x10001)
        X509v3 extensions:
            X509v3 Subject Key Identifier: 
                41:3A:6D:5D:72:79:30:EE:EF:96:16:8A:22:90:C8:04:19:4F:DD:8B
            X509v3 Authority Key Identifier: 
                keyid:41:3A:6D:5D:72:79:30:EE:EF:96:16:8A:22:90:C8:04:19:4F:DD:8B

            X509v3 Basic Constraints: critical
                CA:TRUE
            X509v3 Key Usage: critical
                Certificate Sign, CRL Sign
    Signature Algorithm: sha1WithRSAEncryption
        b0:ed:c0:f2:a8:45:dc:36:96:5b:6e:bf:16:96:2a:1a:49:af:
        a1:e9:eb:e7:84:b1:3f:2a:18:0c:9d:18:f9:6b:f9:fb:0d:86:
        e2:fe:0a:dc:a5:a5:07:cc:c3:ec:0d:b9:13:57:bc:9e:0c:be:
        31:f7:d7:96:eb:56:35:2c:35:78:a4:9f:1c:48:bc:3e:5a:60:
        44:3f:74:6f:42:c3:1f:8a:0e:dd:02:53:62:a1:e0:8b:c6:8b:
        09:cd:65:40:a8:2c:47:01:ce:7d:11:cb:cf:40:7f:74:52:f9:
        b2:90:07:f1:9f:bd:9e:ea:1d:56:fb:de:0b:04:8e:3e:64:d8:
        9b:83:a7:0e:34:97:98:e4:03:ca:84:8e:3c:4b:57:7a:3e:b3:
        dc:31:9b:05:47:ed:a5:05:51:9f:25:64:2c:a4:59:18:ee:16:
        fe:a4:f8:71:28:26:8e:4c:c2:be:32:03:ba:c5:b4:3c:e2:1c:
        f0:3f:5d:dd:62:18:86:66:a5:79:38:3b:0d:60:7b:7b:d3:6f:
        c7:a6:3b:90:b3:e2:83:04:0b:1c:a6:8f:ce:91:b8:4d:3f:ab:
        fd:a9:b2:27:c2:14:fa:fc:bb:e3:da:ab:00:17:f5:9e:23:6e:
        ea:69:0c:83:2d:2f:90:87:60:d8:87:2d:c3:d7:fc:86:20:03:
        d1:3b:88:7e
-----BEGIN CERTIFICATE-----
MIID6jCCAtKgAwIBAgIJALbvEt4PFPJ0MA0GCSqGSIb3DQEBBQUAMIGBMQswCQYD
VQQGEwJCRTEWMBQGA1UECAwNVmxhYW1zLUJhYmFudDEQMA4GA1UECgwHU2llbWVu
czEoMCYGA1UECwwfU2llbWVucyBJVCBTb2x1dGlvbnMgJiBTZXJ2aWNlczEeMBwG
A1UEAwwVU0lTIFVudHJ1c3RlZCBSb290IENBMB4XDTEwMDYwODEzMDcxMVoXDTIw
MDYwNTEzMDcxMVowgYExCzAJBgNVBAYTAkJFMRYwFAYDVQQIDA1WbGFhbXMtQmFi
YW50MRAwDgYDVQQKDAdTaWVtZW5zMSgwJgYDVQQLDB9TaWVtZW5zIElUIFNvbHV0
aW9ucyAmIFNlcnZpY2VzMR4wHAYDVQQDDBVTSVMgVW50cnVzdGVkIFJvb3QgQ0Ew
ggEiMA0GCSqGSIb3DQEBAQUAA4IBDwAwggEKAoIBAQDMollxrJ5tffREQbS7wvGa
6SC6vrRJePbKKBrI732BkjWdWIr5Cs6X/ZksxRThcRVEw9U/Njn+qpWZY2Abs/4g
8tOgmVUuDgAGikRivj8t5bWB4Hy94/bKT3o63fuzhCLm+2s0A3x5fOMymmUVJxvC
CTBl8mrMagTcHUDReCyDLEbC5PPmawc6Amgkt7w7HmUb9xqfNecCxJr1QQ4ZdXa9
vqfukymN8NOQ+Wt+tVoUxMNB6JloAwopWcNZmxo6ao1yBXEiNjZTNW2ZDrCRytfr
kyiF3lvAZixUUXT6J43cAmejJtdifZ9b/DJuFowJs5JvulkkyXbaKCpMSxOD46th
AgMBAAGjYzBhMB0GA1UdDgQWBBRBOm1dcnkw7u+WFooikMgEGU/dizAfBgNVHSME
GDAWgBRBOm1dcnkw7u+WFooikMgEGU/dizAPBgNVHRMBAf8EBTADAQH/MA4GA1Ud
DwEB/wQEAwIBBjANBgkqhkiG9w0BAQUFAAOCAQEAsO3A8qhF3DaWW26/FpYqGkmv
oenr54SxPyoYDJ0Y+Wv5+w2G4v4K3KWlB8zD7A25E1e8ngy+MffXlutWNSw1eKSf
HEi8PlpgRD90b0LDH4oO3QJTYqHgi8aLCc1lQKgsRwHOfRHLz0B/dFL5spAH8Z+9
nuodVvveCwSOPmTYm4OnDjSXmOQDyoSOPEtXej6z3DGbBUftpQVRnyVkLKRZGO4W
/qT4cSgmjkzCvjIDusW0POIc8D9d3WIYhmaleTg7DWB7e9Nvx6Y7kLPigwQLHKaP
zpG4TT+r/amyJ8IU+vy749qrABf1niNu6mkMgy0vkIdg2Ictw9f8hiAD0TuIfg==
-----END CERTIFICATE-----
