Certificate:
    Data:
        Version: 3 (0x2)
        Serial Number:
            86:b8:b3:82:4e:b9:6c:50
        Signature Algorithm: sha1WithRSAEncryption
        Issuer: C=BE, ST=Vlaams-Brabant, O=Siemens, OU=Siemens IT Solutions & Services, CN=SIS Root CA
        Validity
            Not Before: Jun  9 07:03:26 2010 GMT
            Not After : Jun  8 07:03:26 2015 GMT
        Subject: C=BE, ST=Vlaams-Brabant, O=Siemens, OU=Siemens IT Solutions & Services, CN=SIS Intermediate CA with inval BaseUsage
        Subject Public Key Info:
            Public Key Algorithm: rsaEncryption
                Public-Key: (2048 bit)
                Modulus:
                    00:ad:59:e2:f6:9d:71:bb:3a:cb:da:27:53:5e:55:
                    24:15:e3:1f:a6:02:e1:13:b4:e1:8b:1c:a9:b8:2b:
                    84:8e:55:ea:d7:d8:1f:0b:fa:65:1e:4b:d4:fe:a7:
                    dc:8e:72:34:59:75:4c:8e:99:49:38:6a:bc:9d:fb:
                    42:bf:35:03:88:e3:57:9e:8a:3e:69:03:f0:ec:31:
                    80:8d:31:25:25:ed:de:66:b3:34:83:60:3f:30:97:
                    74:38:e5:22:17:0a:0d:91:1c:e2:17:c1:71:98:78:
                    af:2a:92:7f:c3:77:42:f0:5c:90:f3:a6:a5:5a:55:
                    0c:c6:5a:15:97:6d:58:19:e6:e9:dd:f0:7f:1b:c5:
                    98:b6:a9:af:1e:9d:3a:59:34:8c:24:aa:f8:b1:8b:
                    fa:ea:42:64:04:65:88:b3:b3:9c:d6:99:71:f7:f1:
                    14:93:9f:2a:fd:00:ac:e1:eb:af:82:bc:0b:46:35:
                    22:58:79:c6:f4:26:3b:43:58:7b:43:38:4b:7a:73:
                    37:6b:14:bb:cc:0f:2d:ef:2e:73:fd:e3:0f:58:9c:
                    b3:3d:3a:e3:06:9b:d6:41:c0:f6:d9:8d:d4:de:c8:
                    96:f1:17:0c:2b:d4:10:5b:da:57:3a:c0:df:7d:fa:
                    e5:cb:5d:07:8b:18:07:1e:43:7e:2b:1d:c7:85:df:
                    1c:9d
                Exponent: 65537 (0x10001)
        X509v3 extensions:
            X509v3 Subject Key Identifier: 
                78:CD:DC:A2:03:C6:7B:D0:96:F5:3F:40:71:57:49:AB:A8:E0:E7:33
            X509v3 Authority Key Identifier: 
                keyid:CE:C5:78:1F:46:68:83:8E:04:0B:06:2C:81:BB:59:E1:76:78:83:9B

            X509v3 Basic Constraints: critical
                CA:FALSE
            X509v3 Key Usage: critical
                Certificate Sign, CRL Sign
            X509v3 CRL Distribution Points: 

                Full Name:
                  URI:http://localhost:8181/sisca.crl

            Authority Information Access: 
                OCSP - URI:http://localhost:8181/ocsp

    Signature Algorithm: sha1WithRSAEncryption
        5d:b2:1c:50:24:f7:a6:38:db:0d:11:78:2f:51:9f:27:31:db:
        72:8a:3b:00:6a:86:20:e8:c6:f6:14:61:14:0e:a7:be:4c:4f:
        60:a0:81:69:92:97:b4:9b:fe:e3:1e:d0:38:31:d9:fc:d1:d3:
        6e:ea:7f:be:12:8d:35:b4:f1:18:b9:b7:3e:ea:46:e5:52:fa:
        d6:10:83:69:48:89:6b:f2:3c:1d:dd:4d:82:69:81:e6:1b:b2:
        78:06:db:27:2b:ba:de:e4:e9:d3:81:f7:b4:05:1a:f8:68:22:
        0d:4f:64:b5:ab:02:eb:12:f4:56:6d:98:64:79:4e:b7:85:00:
        aa:52:75:b4:d6:9d:28:ab:a3:8f:d7:7d:6d:9a:90:fb:41:24:
        e2:76:4c:05:fa:4a:2b:82:53:e5:51:91:84:c5:5f:b0:c1:64:
        66:ab:9c:87:8f:17:ee:63:50:ec:dd:a5:b7:f5:2f:37:bd:eb:
        2a:86:c5:1e:fe:6c:dc:45:88:07:88:d7:6e:99:5d:fc:34:d2:
        c0:dc:26:cb:86:de:c5:1b:f4:68:8c:e7:44:32:81:21:a0:cc:
        b0:b6:63:3f:88:ad:2d:f4:52:02:88:dc:e9:fe:d5:c3:eb:7b:
        53:3f:66:2f:12:81:74:f4:3e:05:4b:13:71:b5:6b:80:91:7b:
        36:d6:0f:11
-----BEGIN CERTIFICATE-----
MIIEXTCCA0WgAwIBAgIJAIa4s4JOuWxQMA0GCSqGSIb3DQEBBQUAMHgxCzAJBgNV
BAYTAkJFMRcwFQYDVQQIDA5WbGFhbXMtQnJhYmFudDEQMA4GA1UECgwHU2llbWVu
czEoMCYGA1UECwwfU2llbWVucyBJVCBTb2x1dGlvbnMgJiBTZXJ2aWNlczEUMBIG
A1UEAwwLU0lTIFJvb3QgQ0EwHhcNMTAwNjA5MDcwMzI2WhcNMTUwNjA4MDcwMzI2
WjCBlTELMAkGA1UEBhMCQkUxFzAVBgNVBAgMDlZsYWFtcy1CcmFiYW50MRAwDgYD
VQQKDAdTaWVtZW5zMSgwJgYDVQQLDB9TaWVtZW5zIElUIFNvbHV0aW9ucyAmIFNl
cnZpY2VzMTEwLwYDVQQDDChTSVMgSW50ZXJtZWRpYXRlIENBIHdpdGggaW52YWwg
QmFzZVVzYWdlMIIBIjANBgkqhkiG9w0BAQEFAAOCAQ8AMIIBCgKCAQEArVni9p1x
uzrL2idTXlUkFeMfpgLhE7ThixypuCuEjlXq19gfC/plHkvU/qfcjnI0WXVMjplJ
OGq8nftCvzUDiONXnoo+aQPw7DGAjTElJe3eZrM0g2A/MJd0OOUiFwoNkRziF8Fx
mHivKpJ/w3dC8FyQ86alWlUMxloVl21YGebp3fB/G8WYtqmvHp06WTSMJKr4sYv6
6kJkBGWIs7Oc1plx9/EUk58q/QCs4euvgrwLRjUiWHnG9CY7Q1h7QzhLenM3axS7
zA8t7y5z/eMPWJyzPTrjBpvWQcD22Y3U3siW8RcMK9QQW9pXOsDfffrly10HixgH
HkN+Kx3Hhd8cnQIDAQABo4HLMIHIMB0GA1UdDgQWBBR4zdyiA8Z70Jb1P0BxV0mr
qODnMzAfBgNVHSMEGDAWgBTOxXgfRmiDjgQLBiyBu1nhdniDmzAMBgNVHRMBAf8E
AjAAMA4GA1UdDwEB/wQEAwIBBjAwBgNVHR8EKTAnMCWgI6Ahhh9odHRwOi8vbG9j
YWxob3N0OjgxODEvc2lzY2EuY3JsMDYGCCsGAQUFBwEBBCowKDAmBggrBgEFBQcw
AYYaaHR0cDovL2xvY2FsaG9zdDo4MTgxL29jc3AwDQYJKoZIhvcNAQEFBQADggEB
AF2yHFAk96Y42w0ReC9Rnycx23KKOwBqhiDoxvYUYRQOp75MT2CggWmSl7Sb/uMe
0Dgx2fzR027qf74SjTW08Ri5tz7qRuVS+tYQg2lIiWvyPB3dTYJpgeYbsngG2ycr
ut7k6dOB97QFGvhoIg1PZLWrAusS9FZtmGR5TreFAKpSdbTWnSiro4/XfW2akPtB
JOJ2TAX6SiuCU+VRkYTFX7DBZGarnIePF+5jUOzdpbf1Lze96yqGxR7+bNxFiAeI
126ZXfw00sDcJsuG3sUb9GiM50QygSGgzLC2Yz+IrS30UgKI3On+1cPre1M/Zi8S
gXT0PgVLE3G1a4CRezbWDxE=
-----END CERTIFICATE-----
