Certificate:
    Data:
        Version: 3 (0x2)
        Serial Number: 1 (0x1)
        Signature Algorithm: sha1WithRSAEncryption
        Issuer: C=BE, ST=Vlaams-Brabant, O=Siemens, OU=Siemens IT Solutions & Services, CN=SIS Intermediate CA with inval BaseUsage
        Validity
            Not Before: Jun  9 07:06:26 2010 GMT
            Not After : Jun  9 07:06:26 2011 GMT
        Subject: C=BE, ST=Vlaams-Brabant, O=Siemens, OU=Siemens IT Solutions & Services, CN=NIHII=03000000101
        Subject Public Key Info:
            Public Key Algorithm: rsaEncryption
                Public-Key: (2024 bit)
                Modulus:
                    00:cb:ad:a6:c2:6a:cd:ee:94:66:97:30:e9:f9:e8:
                    88:63:ad:53:51:ec:7d:df:7e:3d:49:57:45:54:56:
                    2f:fb:88:81:ce:6b:0a:66:d6:ac:dc:e0:c7:86:cb:
                    1c:40:c2:43:06:69:31:64:7e:fc:0e:ef:e9:1e:9a:
                    1c:7c:12:5d:35:89:99:16:a2:36:65:10:c5:d2:80:
                    00:90:d3:8d:c1:1a:34:d2:c9:ff:65:13:e7:99:d2:
                    59:77:09:06:11:b6:6f:d9:39:44:17:ad:d3:b0:7e:
                    c9:da:b6:c5:53:81:f5:b8:ae:64:57:32:10:af:6b:
                    2f:34:f7:00:f8:28:f9:c4:8f:8b:6c:51:f7:3e:08:
                    1d:77:3d:b5:c5:a2:a5:95:bb:74:76:ad:38:d9:11:
                    66:70:4b:d7:49:92:99:13:9f:f7:6e:7e:76:7a:7c:
                    4f:dd:5f:a8:c3:eb:2f:74:d3:6f:84:49:85:cd:c1:
                    0f:92:93:77:71:07:c1:57:61:04:83:c8:62:a3:3a:
                    1b:2a:99:c4:29:a3:71:f7:b3:a7:25:8d:a7:16:df:
                    ae:41:68:16:97:c2:80:e1:8d:0e:a7:df:03:05:71:
                    3f:5b:f3:a6:fa:c3:54:5a:4a:29:3c:ff:ac:81:44:
                    99:3b:87:81:16:e1:85:f7:7b:b9:d9:32:50:e7
                Exponent: 65537 (0x10001)
        X509v3 extensions:
            X509v3 Key Usage: critical
                Digital Signature
            X509v3 Subject Key Identifier: 
                CB:B9:7B:EC:DC:46:71:7C:FF:04:61:37:A7:E3:0B:84:65:ED:B9:56
            X509v3 Authority Key Identifier: 
                keyid:78:CD:DC:A2:03:C6:7B:D0:96:F5:3F:40:71:57:49:AB:A8:E0:E7:33

            X509v3 Extended Key Usage: 
                TLS Web Client Authentication
            X509v3 CRL Distribution Points: 

                Full Name:
                  URI:http://localhost:8181/sisintca.crl

            Authority Information Access: 
                OCSP - URI:http://localhost:8181/ocsp

    Signature Algorithm: sha1WithRSAEncryption
        8a:5b:76:67:5a:57:3f:79:e2:15:b8:8a:f0:88:97:eb:b5:89:
        fc:3e:01:66:25:8d:e0:a8:a4:84:44:89:9d:ea:a1:82:2b:ac:
        c1:d5:19:e9:c1:7f:a5:80:ec:8d:b4:ff:b0:54:4e:5c:bd:80:
        1f:6f:66:31:6b:c7:14:11:91:f4:b5:05:d3:61:97:79:a0:51:
        c8:3e:05:de:ee:50:ed:29:25:fd:c9:6a:c1:7d:92:f1:41:2b:
        5b:ff:3a:cd:84:8f:a0:b4:ec:1f:6a:42:17:15:cb:be:14:33:
        8e:f6:12:1c:4c:bc:1b:39:b9:96:4a:43:25:a6:a2:01:8f:c8:
        37:ba:aa:dc:64:73:bc:fc:71:b5:8b:8f:2f:4b:6b:f2:a1:8a:
        35:8c:43:a0:1f:6d:68:4b:68:06:78:f5:f2:05:cd:8a:e5:4e:
        ae:20:2a:e4:5e:a0:45:fc:82:56:21:88:19:e9:1c:77:51:d3:
        20:59:18:8b:8b:70:ed:23:77:1f:51:86:e5:eb:9a:e8:2f:33:
        ea:91:99:37:cb:8f:40:27:6c:9e:d9:9f:da:b4:2f:47:5b:c8:
        81:fc:84:af:6a:41:1c:a0:8f:e7:a4:34:35:13:4b:72:52:ff:
        95:4b:5a:5e:dd:45:8d:a2:fe:68:64:b6:a3:9c:4c:66:3d:36:
        38:8a:3f:45
-----BEGIN CERTIFICATE-----
MIIEYTCCA0mgAwIBAgIBATANBgkqhkiG9w0BAQUFADCBlTELMAkGA1UEBhMCQkUx
FzAVBgNVBAgMDlZsYWFtcy1CcmFiYW50MRAwDgYDVQQKDAdTaWVtZW5zMSgwJgYD
VQQLDB9TaWVtZW5zIElUIFNvbHV0aW9ucyAmIFNlcnZpY2VzMTEwLwYDVQQDDChT
SVMgSW50ZXJtZWRpYXRlIENBIHdpdGggaW52YWwgQmFzZVVzYWdlMB4XDTEwMDYw
OTA3MDYyNloXDTExMDYwOTA3MDYyNlowfjELMAkGA1UEBhMCQkUxFzAVBgNVBAgM
DlZsYWFtcy1CcmFiYW50MRAwDgYDVQQKDAdTaWVtZW5zMSgwJgYDVQQLDB9TaWVt
ZW5zIElUIFNvbHV0aW9ucyAmIFNlcnZpY2VzMRowGAYDVQQDDBFOSUhJST0wMzAw
MDAwMDEwMTCCAR4wDQYJKoZIhvcNAQEBBQADggELADCCAQYCgf4Ay62mwmrN7pRm
lzDp+eiIY61TUex93349SVdFVFYv+4iBzmsKZtas3ODHhsscQMJDBmkxZH78Du/p
HpocfBJdNYmZFqI2ZRDF0oAAkNONwRo00sn/ZRPnmdJZdwkGEbZv2TlEF63TsH7J
2rbFU4H1uK5kVzIQr2svNPcA+Cj5xI+LbFH3Pggddz21xaKllbt0dq042RFmcEvX
SZKZE5/3bn52enxP3V+ow+svdNNvhEmFzcEPkpN3cQfBV2EEg8hiozobKpnEKaNx
97OnJY2nFt+uQWgWl8KA4Y0Op98DBXE/W/Om+sNUWkopPP+sgUSZO4eBFuGF93u5
2TJQ5wIDAQABo4HVMIHSMA4GA1UdDwEB/wQEAwIHgDAdBgNVHQ4EFgQUy7l77NxG
cXz/BGE3p+MLhGXtuVYwHwYDVR0jBBgwFoAUeM3cogPGe9CW9T9AcVdJq6jg5zMw
EwYDVR0lBAwwCgYIKwYBBQUHAwIwMwYDVR0fBCwwKjAooCagJIYiaHR0cDovL2xv
Y2FsaG9zdDo4MTgxL3Npc2ludGNhLmNybDA2BggrBgEFBQcBAQQqMCgwJgYIKwYB
BQUHMAGGGmh0dHA6Ly9sb2NhbGhvc3Q6ODE4MS9vY3NwMA0GCSqGSIb3DQEBBQUA
A4IBAQCKW3ZnWlc/eeIVuIrwiJfrtYn8PgFmJY3gqKSERImd6qGCK6zB1RnpwX+l
gOyNtP+wVE5cvYAfb2Yxa8cUEZH0tQXTYZd5oFHIPgXe7lDtKSX9yWrBfZLxQStb
/zrNhI+gtOwfakIXFcu+FDOO9hIcTLwbObmWSkMlpqIBj8g3uqrcZHO8/HG1i48v
S2vyoYo1jEOgH21oS2gGePXyBc2K5U6uICrkXqBF/IJWIYgZ6Rx3UdMgWRiLi3Dt
I3cfUYbl65roLzPqkZk3y49AJ2ye2Z/atC9HW8iB/ISvakEcoI/npDQ1E0tyUv+V
S1pe3UWNov5oZLajnExmPTY4ij9F
-----END CERTIFICATE-----
