Certificate:
    Data:
        Version: 3 (0x2)
        Serial Number:
            86:b8:b3:82:4e:b9:6c:4e
        Signature Algorithm: sha1WithRSAEncryption
        Issuer: C=BE, ST=Vlaams-Brabant, O=Siemens, OU=Siemens IT Solutions & Services, CN=SIS Root CA
        Validity
            Not Before: Jun  8 11:05:15 2010 GMT
            Not After : Jun  7 11:05:15 2015 GMT
        Subject: C=BE, ST=Vlaams-Brabant, O=Siemens, OU=Siemens IT Solutions & Services, CN=SIS Intermediate CA
        Subject Public Key Info:
            Public Key Algorithm: rsaEncryption
                Public-Key: (2048 bit)
                Modulus:
                    00:e3:04:f5:ad:92:20:d8:e9:b0:30:f8:78:a3:6f:
                    81:28:86:3a:0b:37:b2:6b:b5:ef:02:74:6b:9e:8e:
                    05:d6:59:0c:6d:46:11:97:79:18:3e:7a:bb:17:9e:
                    c0:f0:f0:46:de:08:4f:20:fc:f4:55:1b:a4:fb:15:
                    2d:3c:9f:1a:6c:e5:08:3e:c9:47:6b:f6:8d:62:b3:
                    47:7f:40:bf:75:52:d0:4d:86:fc:43:02:7f:d6:56:
                    7e:68:40:19:db:c4:0d:a3:66:50:97:68:c6:da:fb:
                    e4:31:4c:d4:a4:e4:a9:66:96:94:f7:2b:cc:9f:9a:
                    8a:29:1d:f5:52:0c:89:f7:22:7d:6a:b1:2e:ad:95:
                    01:24:86:3c:54:52:55:02:32:3d:34:fd:ac:26:f1:
                    65:37:e9:e9:2c:81:b6:72:1f:88:4e:5e:80:a1:95:
                    07:27:36:35:c4:0b:2a:62:16:51:e4:a4:95:26:56:
                    5a:b8:ed:66:0d:3d:a7:cf:ad:9c:e8:d7:d1:db:ce:
                    1d:8f:11:40:6b:91:cc:9d:c0:c2:6a:b5:c7:dd:c7:
                    99:6c:2c:e1:c9:6e:18:ec:1f:95:5f:de:be:f7:fd:
                    3d:6b:81:a8:31:dc:68:e7:09:cc:5f:e3:fc:28:59:
                    e0:b7:fa:db:e2:9d:0e:64:64:d6:0d:57:4d:c1:28:
                    42:1d
                Exponent: 65537 (0x10001)
        X509v3 extensions:
            X509v3 Subject Key Identifier: 
                DC:C7:5E:94:72:FD:83:79:74:0C:5E:03:2F:6A:DD:36:DC:27:15:EB
            X509v3 Authority Key Identifier: 
                keyid:CE:C5:78:1F:46:68:83:8E:04:0B:06:2C:81:BB:59:E1:76:78:83:9B

            X509v3 Basic Constraints: critical
                CA:TRUE
            X509v3 Key Usage: critical
                Certificate Sign, CRL Sign
            X509v3 CRL Distribution Points: 

                Full Name:
                  URI:http://localhost:8181/sisca.crl

            Authority Information Access: 
                OCSP - URI:http://localhost:8181/ocsp

    Signature Algorithm: sha1WithRSAEncryption
        28:c5:ec:d7:b4:4d:78:72:8a:87:9d:f9:f7:fe:71:62:e6:8c:
        0b:87:f4:ca:68:46:f5:c7:13:ed:5f:03:70:b2:de:f8:2c:2e:
        1c:c3:1f:45:93:93:6d:a3:a0:f3:25:e8:c4:55:af:a4:55:fe:
        52:9b:ae:58:ba:7f:ea:ca:f2:7e:9a:e0:9d:07:4e:1c:79:13:
        09:22:7c:c1:b3:b5:77:09:80:2c:5a:3d:09:95:49:ea:1f:96:
        65:92:b6:1a:8a:94:91:d3:1b:a4:1c:31:b1:28:89:59:49:aa:
        8d:a8:6e:c0:20:ee:b2:d6:12:d1:61:70:ea:8d:18:98:03:6e:
        37:f4:d8:e0:99:0c:72:43:ee:9a:01:57:85:ec:34:4a:ce:b9:
        5e:4d:e0:ee:b7:19:f5:85:ff:01:be:21:4c:d9:4c:93:60:f7:
        85:66:18:19:94:c0:30:3a:a8:56:f5:9d:79:c8:39:e1:15:ee:
        0a:7a:44:10:90:8f:ef:93:ad:83:7c:1d:8f:12:85:f7:55:40:
        62:31:8c:4b:bc:0c:1b:1b:b8:bc:97:a8:32:8b:f1:85:c6:31:
        6d:32:b2:a6:a9:fd:9f:db:5a:8b:88:3f:0d:0d:fe:48:29:82:
        c8:19:fb:47:2f:9f:81:76:04:9a:6b:2a:b6:ac:3d:b2:a2:ae:
        8d:f4:42:8e
-----BEGIN CERTIFICATE-----
MIIESzCCAzOgAwIBAgIJAIa4s4JOuWxOMA0GCSqGSIb3DQEBBQUAMHgxCzAJBgNV
BAYTAkJFMRcwFQYDVQQIDA5WbGFhbXMtQnJhYmFudDEQMA4GA1UECgwHU2llbWVu
czEoMCYGA1UECwwfU2llbWVucyBJVCBTb2x1dGlvbnMgJiBTZXJ2aWNlczEUMBIG
A1UEAwwLU0lTIFJvb3QgQ0EwHhcNMTAwNjA4MTEwNTE1WhcNMTUwNjA3MTEwNTE1
WjCBgDELMAkGA1UEBhMCQkUxFzAVBgNVBAgMDlZsYWFtcy1CcmFiYW50MRAwDgYD
VQQKDAdTaWVtZW5zMSgwJgYDVQQLDB9TaWVtZW5zIElUIFNvbHV0aW9ucyAmIFNl
cnZpY2VzMRwwGgYDVQQDDBNTSVMgSW50ZXJtZWRpYXRlIENBMIIBIjANBgkqhkiG
9w0BAQEFAAOCAQ8AMIIBCgKCAQEA4wT1rZIg2OmwMPh4o2+BKIY6Czeya7XvAnRr
no4F1lkMbUYRl3kYPnq7F57A8PBG3ghPIPz0VRuk+xUtPJ8abOUIPslHa/aNYrNH
f0C/dVLQTYb8QwJ/1lZ+aEAZ28QNo2ZQl2jG2vvkMUzUpOSpZpaU9yvMn5qKKR31
UgyJ9yJ9arEurZUBJIY8VFJVAjI9NP2sJvFlN+npLIG2ch+ITl6AoZUHJzY1xAsq
YhZR5KSVJlZauO1mDT2nz62c6NfR284djxFAa5HMncDCarXH3ceZbCzhyW4Y7B+V
X96+9/09a4GoMdxo5wnMX+P8KFngt/rb4p0OZGTWDVdNwShCHQIDAQABo4HOMIHL
MB0GA1UdDgQWBBTcx16Ucv2DeXQMXgMvat023CcV6zAfBgNVHSMEGDAWgBTOxXgf
RmiDjgQLBiyBu1nhdniDmzAPBgNVHRMBAf8EBTADAQH/MA4GA1UdDwEB/wQEAwIB
BjAwBgNVHR8EKTAnMCWgI6Ahhh9odHRwOi8vbG9jYWxob3N0OjgxODEvc2lzY2Eu
Y3JsMDYGCCsGAQUFBwEBBCowKDAmBggrBgEFBQcwAYYaaHR0cDovL2xvY2FsaG9z
dDo4MTgxL29jc3AwDQYJKoZIhvcNAQEFBQADggEBACjF7Ne0TXhyioed+ff+cWLm
jAuH9MpoRvXHE+1fA3Cy3vgsLhzDH0WTk22joPMl6MRVr6RV/lKbrli6f+rK8n6a
4J0HThx5EwkifMGztXcJgCxaPQmVSeoflmWSthqKlJHTG6QcMbEoiVlJqo2obsAg
7rLWEtFhcOqNGJgDbjf02OCZDHJD7poBV4XsNErOuV5N4O63GfWF/wG+IUzZTJNg
94VmGBmUwDA6qFb1nXnIOeEV7gp6RBCQj++TrYN8HY8ShfdVQGIxjEu8DBsbuLyX
qDKL8YXGMW0ysqap/Z/bWouIPw0N/kgpgsgZ+0cvn4F2BJprKrasPbKiro30Qo4=
-----END CERTIFICATE-----
