Certificate:
    Data:
        Version: 3 (0x2)
        Serial Number: 4 (0x4)
        Signature Algorithm: sha1WithRSAEncryption
        Issuer: C=BE, ST=Vlaams-Brabant, O=Siemens, OU=Siemens IT Solutions & Services, CN=SIS Intermediate CA
        Validity
            Not Before: Jun  9 05:36:44 2010 GMT
            Not After : Jun  9 05:36:44 2011 GMT
        Subject: C=BE, ST=Vlaams-Brabant, O=Siemens, OU=Siemens IT Solutions & Services, CN=NIHII=50000000101
        Subject Public Key Info:
            Public Key Algorithm: dsaEncryption
                pub: 
                    00:d8:48:3a:f0:d6:6d:fc:22:b1:e9:09:11:29:a1:
                    a3:39:fe:51:ab:a5:ed:eb:3e:4d:c3:96:0b:56:58:
                    b0:fc:60:b0:49:24:f1:40:04:5e:b1:e1:f3:5d:96:
                    55:99:f2:03:cf:e2:3c:a3:c6:1d:2b:bc:f6:41:0f:
                    fd:11:3d:32:b6:77:b1:5c:19:09:be:1e:6b:94:a2:
                    bb:09:bf:49:e0:f8:9f:01:45:98:44:88:61:58:6d:
                    a4:68:4f:fc:7d:52:f5:5f:a7:1f:54:7f:db:60:b6:
                    1f:68:00:04:fe:c8:e1:bc:8b:f5:60:bb:7d:c9:97:
                    90:e5:59:fe:28:1c:26:ff:74:66:c0:b7:76:e8:7c:
                    d1:c6:ce:69:ac:a8:e4:a2:65:8e:49:dd:45:73:23:
                    c8:1e:fd:c4:54:77:1e:b5:1d:77:a5:72:73:82:2e:
                    a6:32:2f:a9:7e:cb:57:02:af:b0:b6:6f:ca:67:ec:
                    7b:3b:88:8c:9e:c9:2c:8b:1b:09:49:37:43:45:41:
                    fd:55:79:92:64:36:7b:37:76:da:bc:75:36:73:ba:
                    49:40:0b:80:82:29:04:f7:48:7f:aa:a7:73:5d:c3:
                    3a:a8:cf:2e:39:48:2f:85:63:92:23:51:c4:60:64:
                    c7:b4:61:a7:10:c5:f5:d0:78:01:fe:6d:3e:0c:16:
                    c7:18
                P:   
                    00:e6:23:04:7a:d4:3e:31:ca:ba:11:1e:6e:10:79:
                    1e:ae:54:06:92:e4:0e:2e:96:14:b1:53:fb:5e:a1:
                    e4:46:a7:e6:83:53:5c:d1:2f:dd:89:b6:0f:a0:40:
                    ca:58:d7:a4:b3:15:9a:b3:5e:79:ae:6a:c0:a3:7c:
                    2b:b3:d9:fc:a3:1c:a4:80:c3:db:28:a8:2e:88:8b:
                    db:70:80:a0:4e:9c:8d:de:b9:04:ae:1f:6f:7f:7b:
                    34:7e:50:a7:27:58:31:71:29:e5:b4:f0:92:0e:8c:
                    e4:88:23:f5:ef:30:31:85:3b:24:8a:39:0c:a4:58:
                    a5:9a:c9:59:89:fc:0d:3e:14:58:93:4d:5c:35:05:
                    bd:45:f9:bd:72:45:9b:f8:9a:d5:c4:5b:b7:7a:a7:
                    21:81:ce:cc:9c:14:aa:ce:0a:98:61:1d:01:94:54:
                    03:8c:51:74:7b:b7:18:b8:bc:05:79:af:55:b0:ec:
                    fe:3e:dc:46:df:7f:b5:5f:7c:c8:75:cc:d7:11:7f:
                    d5:37:3b:28:59:b6:ec:99:13:43:b1:82:3e:87:7d:
                    11:f4:89:4b:ac:36:31:85:8a:d8:72:74:c4:58:3d:
                    7a:d5:d3:6e:f5:6c:69:51:0f:0d:46:51:c9:4b:c8:
                    4a:bd:a2:ca:de:03:fc:7b:75:ff:06:a3:4a:dc:5a:
                    74:3d
                Q:   
                    00:8c:a6:0a:f5:c2:c4:ec:a1:f5:c3:5a:50:5c:05:
                    94:b4:80:55:f2:b3:c4:94:1a:d8:c4:66:1e:06:2d:
                    1f:90:0f
                G:   
                    05:19:67:04:ad:ed:3b:2f:d4:f5:c9:f3:21:08:cb:
                    98:d8:1e:8e:66:69:61:00:1f:bf:ce:df:f9:8f:87:
                    c3:76:cf:06:13:66:93:cf:cf:a2:08:c7:2e:88:72:
                    2a:01:bc:a4:c7:90:55:73:54:c2:9e:a2:a1:e8:95:
                    ed:fa:51:fe:1c:ec:ba:46:eb:36:2b:c5:57:4d:83:
                    0f:4d:c6:e7:5c:ce:47:a4:d8:dd:fd:72:9e:0d:67:
                    39:b3:d6:60:ad:24:80:b8:aa:b9:c8:ea:a3:70:27:
                    4b:b4:72:2d:75:19:2b:f4:9f:7f:65:87:55:ea:d8:
                    49:64:53:aa:76:d0:c7:45:e6:81:3e:a3:8c:84:8f:
                    f9:fc:e7:26:43:4d:cf:0a:9b:30:b9:88:4d:09:44:
                    f5:ac:06:33:59:56:af:95:21:6b:83:39:51:aa:6f:
                    53:13:7a:f0:3a:53:f9:7e:c7:da:2b:4e:01:14:e2:
                    bc:81:ae:da:0b:ba:aa:0a:81:2b:2f:b9:20:c0:6c:
                    5d:4e:2a:3f:4f:f3:9f:5a:cd:29:68:6d:da:52:b1:
                    1e:80:50:19:73:4e:f2:0c:c7:4a:8a:d8:43:be:57:
                    e3:56:6b:f9:2e:49:5a:d8:09:6a:7d:86:9d:45:9c:
                    8c:12:7c:f9:24:20:2f:5b:a0:7d:b7:43:92:ed:59:
                    8c
        X509v3 extensions:
            X509v3 Key Usage: critical
                Digital Signature
            X509v3 Subject Key Identifier: 
                2D:15:C6:C4:D0:45:25:32:43:D4:78:47:C6:92:C8:61:67:FC:C9:5F
            X509v3 Authority Key Identifier: 
                keyid:DC:C7:5E:94:72:FD:83:79:74:0C:5E:03:2F:6A:DD:36:DC:27:15:EB

            X509v3 Extended Key Usage: 
                TLS Web Client Authentication
            X509v3 CRL Distribution Points: 

                Full Name:
                  URI:http://localhost:8181/sisintca.crl

            Authority Information Access: 
                OCSP - URI:http://localhost:8181/ocsp

    Signature Algorithm: sha1WithRSAEncryption
        2d:fb:70:26:a8:9c:74:36:23:af:cd:24:cf:8e:5c:26:35:d6:
        b0:b2:8b:f8:ae:7e:15:31:92:f8:a5:eb:05:53:cb:db:08:86:
        ae:f6:ea:c0:2b:4f:a9:25:11:67:0d:7b:4c:c3:3e:e2:8d:30:
        9f:46:5d:61:d8:82:0f:cd:3b:a3:88:dd:6b:8e:8a:b5:0d:1d:
        98:db:7b:21:be:2a:a0:10:01:a0:0a:18:20:a6:7c:eb:06:26:
        d4:38:2b:9d:01:a5:b3:69:bc:7f:4a:4e:ea:3e:b0:07:79:7b:
        cf:e5:17:80:c6:7e:81:22:1e:48:c3:c9:a2:d4:e1:e7:42:87:
        7a:99:04:5b:19:1d:6a:2e:55:57:fc:7a:1b:63:d0:bb:c3:7e:
        c8:e4:73:55:a0:76:ce:68:90:46:9e:91:07:c8:67:8c:fb:1d:
        db:78:18:f2:35:6a:49:61:b4:23:db:fe:6f:0b:bd:ea:b5:64:
        87:f5:0d:1a:4e:2a:bb:90:85:47:af:a4:01:bf:75:45:d3:4b:
        3b:7f:7c:cb:6f:1c:3a:74:4c:4c:49:c2:3c:27:54:f7:cf:11:
        d0:74:72:c7:dd:14:db:57:e6:77:27:da:7d:20:f0:82:ac:ff:
        3d:25:00:62:48:8d:74:51:a9:5a:89:f6:0c:7e:0c:dc:2f:38:
        53:a0:27:96
-----BEGIN CERTIFICATE-----
MIIGdTCCBV2gAwIBAgIBBDANBgkqhkiG9w0BAQUFADCBgDELMAkGA1UEBhMCQkUx
FzAVBgNVBAgMDlZsYWFtcy1CcmFiYW50MRAwDgYDVQQKDAdTaWVtZW5zMSgwJgYD
VQQLDB9TaWVtZW5zIElUIFNvbHV0aW9ucyAmIFNlcnZpY2VzMRwwGgYDVQQDDBNT
SVMgSW50ZXJtZWRpYXRlIENBMB4XDTEwMDYwOTA1MzY0NFoXDTExMDYwOTA1MzY0
NFowfjELMAkGA1UEBhMCQkUxFzAVBgNVBAgMDlZsYWFtcy1CcmFiYW50MRAwDgYD
VQQKDAdTaWVtZW5zMSgwJgYDVQQLDB9TaWVtZW5zIElUIFNvbHV0aW9ucyAmIFNl
cnZpY2VzMRowGAYDVQQDDBFOSUhJST01MDAwMDAwMDEwMTCCA0cwggI5BgcqhkjO
OAQBMIICLAKCAQEA5iMEetQ+Mcq6ER5uEHkerlQGkuQOLpYUsVP7XqHkRqfmg1Nc
0S/dibYPoEDKWNeksxWas155rmrAo3wrs9n8oxykgMPbKKguiIvbcICgTpyN3rkE
rh9vf3s0flCnJ1gxcSnltPCSDozkiCP17zAxhTskijkMpFilmslZifwNPhRYk01c
NQW9Rfm9ckWb+JrVxFu3eqchgc7MnBSqzgqYYR0BlFQDjFF0e7cYuLwFea9VsOz+
PtxG33+1X3zIdczXEX/VNzsoWbbsmRNDsYI+h30R9IlLrDYxhYrYcnTEWD161dNu
9WxpUQ8NRlHJS8hKvaLK3gP8e3X/BqNK3Fp0PQIhAIymCvXCxOyh9cNaUFwFlLSA
VfKzxJQa2MRmHgYtH5APAoIBAAUZZwSt7Tsv1PXJ8yEIy5jYHo5maWEAH7/O3/mP
h8N2zwYTZpPPz6IIxy6IcioBvKTHkFVzVMKeoqHole36Uf4c7LpG6zYrxVdNgw9N
xudczkek2N39cp4NZzmz1mCtJIC4qrnI6qNwJ0u0ci11GSv0n39lh1Xq2ElkU6p2
0MdF5oE+o4yEj/n85yZDTc8KmzC5iE0JRPWsBjNZVq+VIWuDOVGqb1MTevA6U/l+
x9orTgEU4ryBrtoLuqoKgSsvuSDAbF1OKj9P859azSlobdpSsR6AUBlzTvIMx0qK
2EO+V+NWa/kuSVrYCWp9hp1FnIwSfPkkIC9boH23Q5LtWYwDggEGAAKCAQEA2Eg6
8NZt/CKx6QkRKaGjOf5Rq6Xt6z5Nw5YLVliw/GCwSSTxQAReseHzXZZVmfIDz+I8
o8YdK7z2QQ/9ET0ytnexXBkJvh5rlKK7Cb9J4PifAUWYRIhhWG2kaE/8fVL1X6cf
VH/bYLYfaAAE/sjhvIv1YLt9yZeQ5Vn+KBwm/3RmwLd26HzRxs5prKjkomWOSd1F
cyPIHv3EVHcetR13pXJzgi6mMi+pfstXAq+wtm/KZ+x7O4iMnsksixsJSTdDRUH9
VXmSZDZ7N3bavHU2c7pJQAuAgikE90h/qqdzXcM6qM8uOUgvhWOSI1HEYGTHtGGn
EMX10HgB/m0+DBbHGKOB1TCB0jAOBgNVHQ8BAf8EBAMCB4AwHQYDVR0OBBYEFC0V
xsTQRSUyQ9R4R8aSyGFn/MlfMB8GA1UdIwQYMBaAFNzHXpRy/YN5dAxeAy9q3Tbc
JxXrMBMGA1UdJQQMMAoGCCsGAQUFBwMCMDMGA1UdHwQsMCowKKAmoCSGImh0dHA6
Ly9sb2NhbGhvc3Q6ODE4MS9zaXNpbnRjYS5jcmwwNgYIKwYBBQUHAQEEKjAoMCYG
CCsGAQUFBzABhhpodHRwOi8vbG9jYWxob3N0OjgxODEvb2NzcDANBgkqhkiG9w0B
AQUFAAOCAQEALftwJqicdDYjr80kz45cJjXWsLKL+K5+FTGS+KXrBVPL2wiGrvbq
wCtPqSURZw17TMM+4o0wn0ZdYdiCD807o4jda46KtQ0dmNt7Ib4qoBABoAoYIKZ8
6wYm1DgrnQGls2m8f0pO6j6wB3l7z+UXgMZ+gSIeSMPJotTh50KHepkEWxkdai5V
V/x6G2PQu8N+yORzVaB2zmiQRp6RB8hnjPsd23gY8jVqSWG0I9v+bwu96rVkh/UN
Gk4qu5CFR6+kAb91RdNLO398y28cOnRMTEnCPCdU988R0HRyx90U21fmdyfafSDw
gqz/PSUAYkiNdFGpWon2DH4M3C84U6Anlg==
-----END CERTIFICATE-----
