Certificate:
    Data:
        Version: 3 (0x2)
        Serial Number: 13 (0xd)
        Signature Algorithm: sha1WithRSAEncryption
        Issuer: C=BE, ST=Vlaams-Brabant, O=Siemens, OU=Siemens IT Solutions & Services, CN=SIS Intermediate CA
        Validity
            Not Before: Jun 10 07:58:15 2010 GMT
            Not After : Jun 10 07:58:15 2011 GMT
        Subject: C=BE, ST=Vlaams-Brabant, O=Siemens, OU=Siemens IT Solutions & Services, CN=NIHII=12000000101
        Subject Public Key Info:
            Public Key Algorithm: dsaEncryption
                pub: 
                    7a:57:d9:d9:10:00:41:84:6c:c5:bc:16:ae:9a:c5:
                    86:46:d8:d9:6a:01:90:31:2b:6b:5b:4a:e8:55:fe:
                    f3:f6:30:fb:0b:43:e0:e1:2a:28:e9:74:53:52:00:
                    87:04:ac:0f:a6:16:09:11:5f:fa:63:42:53:0c:23:
                    d9:08:f4:28:0b:10:02:76:7e:02:87:5f:e0:63:ac:
                    ad:4e:60:80:b1:91:1d:2c:70:89:e7:83:32:63:f3:
                    36:59:d0:00:94:5c:56:79:ad:e1:20:03:17:c0:2d:
                    db:0b:18:7d:fd:09:cb:4b:f6:42:ff:19:ca:16:db:
                    ef:9a:ee:10:a2:ae:3a:b5
                P:   
                    00:fa:87:a8:15:98:79:e4:14:7e:10:30:e9:39:c2:
                    d1:6e:15:43:67:5f:a5:af:99:ae:04:66:0b:95:c5:
                    ae:48:75:7b:00:44:8f:7c:e0:16:b0:67:ed:d3:2e:
                    27:8f:7e:87:80:0d:5e:ba:de:ff:5a:76:bf:c9:6a:
                    45:f4:21:d4:cd:c2:80:4f:cd:9f:b4:e8:46:d8:4a:
                    7d:09:1c:58:95:95:a9:e6:b4:c6:1b:9c:87:e5:ce:
                    b3:b0:2b:72:54:46:10:c8:26:04:d0:2b:c0:a0:58:
                    7d:80:22:97:3e:9c:e4:f7:a3:8c:59:ea:60:48:93:
                    6d:e3:fe:4f:2b:f4:fe:15:33
                Q:   
                    00:cb:5a:07:ae:6e:75:4a:06:d3:7a:b9:d0:dc:3b:
                    c7:71:63:f1:f7:e9
                G:   
                    00:f2:4c:98:a7:4f:40:a9:b3:dc:5d:7e:8b:a5:c8:
                    18:7c:54:ee:e5:24:b3:ff:22:a4:d2:e4:2d:14:85:
                    e7:58:fb:b1:77:ab:0c:f1:e9:8b:55:60:b4:70:7e:
                    d5:9f:51:5c:1b:ec:9f:44:2f:b9:63:78:39:09:15:
                    eb:50:f5:f0:14:f1:9b:1f:0b:0c:19:dd:cc:46:da:
                    39:d6:88:af:f8:ec:c7:b0:26:ff:06:e1:02:96:58:
                    c0:d8:f9:df:17:8f:75:1d:33:7f:09:28:ac:03:36:
                    3f:41:76:51:36:db:2e:87:0d:c9:d9:6d:98:c9:ed:
                    4b:13:47:ae:e4:ac:43:ec:71
        X509v3 extensions:
            X509v3 Key Usage: critical
                Digital Signature
            X509v3 Subject Key Identifier: 
                C7:69:AC:10:0F:11:97:56:3E:58:0B:ED:E7:F7:40:D7:0B:9C:A8:04
            X509v3 Authority Key Identifier: 
                keyid:DC:C7:5E:94:72:FD:83:79:74:0C:5E:03:2F:6A:DD:36:DC:27:15:EB

            X509v3 Extended Key Usage: 
                TLS Web Client Authentication
            X509v3 CRL Distribution Points: 

                Full Name:
                  URI:http://localhost:8181/sisintca.crl

            Authority Information Access: 
                OCSP - URI:http://localhost:8181/ocsp

    Signature Algorithm: sha1WithRSAEncryption
        52:90:91:6b:e6:49:b4:34:23:8a:09:7d:f3:95:27:0d:56:e8:
        29:26:a3:96:5c:e8:9b:cd:fd:a9:09:0d:d4:1f:b9:eb:9a:4c:
        c7:e0:c3:e2:71:66:15:74:ac:a7:17:68:15:d1:58:64:55:a0:
        f4:25:8d:73:85:c1:1e:80:5e:c5:06:f5:a6:6d:a9:e5:20:8e:
        73:3e:89:e7:63:05:5c:de:65:74:10:97:4a:07:6a:30:98:f7:
        47:2a:22:bc:56:9c:b8:59:e7:bb:c9:76:ab:8a:87:d6:81:d9:
        2a:1c:0b:a5:4e:97:2a:95:73:ad:65:36:6d:65:48:02:29:fb:
        53:3d:94:eb:c8:59:3d:5c:23:91:b7:28:5d:d8:c1:90:51:d6:
        e2:b4:51:22:e1:3d:f7:20:12:ff:f6:db:bd:9b:4f:33:d8:2d:
        90:41:d0:b5:72:96:25:9b:ba:00:dc:a4:62:3c:3a:d6:e9:8b:
        fc:05:37:8d:1b:86:da:1d:b7:67:aa:0c:5c:79:f5:62:15:b9:
        07:af:c2:27:7b:90:19:68:1a:16:34:a2:dc:4a:d4:95:71:81:
        32:b1:04:0f:97:dc:1a:77:c1:28:37:d0:8a:a3:71:88:01:28:
        14:75:8e:35:8c:2d:32:6a:f5:73:87:e7:cd:5f:b4:0b:c9:14:
        89:c2:f3:91
-----BEGIN CERTIFICATE-----
MIIE5TCCA82gAwIBAgIBDTANBgkqhkiG9w0BAQUFADCBgDELMAkGA1UEBhMCQkUx
FzAVBgNVBAgMDlZsYWFtcy1CcmFiYW50MRAwDgYDVQQKDAdTaWVtZW5zMSgwJgYD
VQQLDB9TaWVtZW5zIElUIFNvbHV0aW9ucyAmIFNlcnZpY2VzMRwwGgYDVQQDDBNT
SVMgSW50ZXJtZWRpYXRlIENBMB4XDTEwMDYxMDA3NTgxNVoXDTExMDYxMDA3NTgx
NVowfjELMAkGA1UEBhMCQkUxFzAVBgNVBAgMDlZsYWFtcy1CcmFiYW50MRAwDgYD
VQQKDAdTaWVtZW5zMSgwJgYDVQQLDB9TaWVtZW5zIElUIFNvbHV0aW9ucyAmIFNl
cnZpY2VzMRowGAYDVQQDDBFOSUhJST0xMjAwMDAwMDEwMTCCAbcwggEsBgcqhkjO
OAQBMIIBHwKBgQD6h6gVmHnkFH4QMOk5wtFuFUNnX6Wvma4EZguVxa5IdXsARI98
4BawZ+3TLiePfoeADV663v9adr/JakX0IdTNwoBPzZ+06EbYSn0JHFiVlanmtMYb
nIflzrOwK3JURhDIJgTQK8CgWH2AIpc+nOT3o4xZ6mBIk23j/k8r9P4VMwIVAMta
B65udUoG03q50Nw7x3Fj8ffpAoGBAPJMmKdPQKmz3F1+i6XIGHxU7uUks/8ipNLk
LRSF51j7sXerDPHpi1VgtHB+1Z9RXBvsn0QvuWN4OQkV61D18BTxmx8LDBndzEba
OdaIr/jsx7Am/wbhApZYwNj53xePdR0zfwkorAM2P0F2UTbbLocNydltmMntSxNH
ruSsQ+xxA4GEAAKBgHpX2dkQAEGEbMW8Fq6axYZG2NlqAZAxK2tbSuhV/vP2MPsL
Q+DhKijpdFNSAIcErA+mFgkRX/pjQlMMI9kI9CgLEAJ2fgKHX+BjrK1OYICxkR0s
cInngzJj8zZZ0ACUXFZ5reEgAxfALdsLGH39CctL9kL/GcoW2++a7hCirjq1o4HV
MIHSMA4GA1UdDwEB/wQEAwIHgDAdBgNVHQ4EFgQUx2msEA8Rl1Y+WAvt5/dA1wuc
qAQwHwYDVR0jBBgwFoAU3MdelHL9g3l0DF4DL2rdNtwnFeswEwYDVR0lBAwwCgYI
KwYBBQUHAwIwMwYDVR0fBCwwKjAooCagJIYiaHR0cDovL2xvY2FsaG9zdDo4MTgx
L3Npc2ludGNhLmNybDA2BggrBgEFBQcBAQQqMCgwJgYIKwYBBQUHMAGGGmh0dHA6
Ly9sb2NhbGhvc3Q6ODE4MS9vY3NwMA0GCSqGSIb3DQEBBQUAA4IBAQBSkJFr5km0
NCOKCX3zlScNVugpJqOWXOibzf2pCQ3UH7nrmkzH4MPicWYVdKynF2gV0VhkVaD0
JY1zhcEegF7FBvWmbanlII5zPonnYwVc3mV0EJdKB2owmPdHKiK8Vpy4Wee7yXar
iofWgdkqHAulTpcqlXOtZTZtZUgCKftTPZTryFk9XCORtyhd2MGQUdbitFEi4T33
IBL/9tu9m08z2C2QQdC1cpYlm7oA3KRiPDrW6Yv8BTeNG4baHbdnqgxcefViFbkH
r8Ine5AZaBoWNKLcStSVcYEysQQPl9wad8EoN9CKo3GIASgUdY41jC0yavVzh+fN
X7QLyRSJwvOR
-----END CERTIFICATE-----
