Certificate:
    Data:
        Version: 3 (0x2)
        Serial Number: 10 (0xa)
        Signature Algorithm: sha1WithRSAEncryption
        Issuer: C=BE, ST=Vlaams-Brabant, O=Siemens, OU=Siemens IT Solutions & Services, CN=SIS Intermediate CA
        Validity
            Not Before: Jun  9 00:00:00 2010 GMT
            Not After : Jun  9 01:00:00 2010 GMT
        Subject: C=BE, ST=Vlaams-Brabant, O=Siemens, OU=Siemens IT Solutions & Services, CN=NIHII=01000000101
        Subject Public Key Info:
            Public Key Algorithm: rsaEncryption
                Public-Key: (2048 bit)
                Modulus:
                    00:ea:a9:ff:f8:d3:b9:6e:25:7c:89:b4:4a:4d:d8:
                    b0:d3:84:c0:be:91:7e:47:4b:45:7b:05:a7:f1:37:
                    b2:48:44:fc:17:c0:27:9a:a7:f8:0b:bf:63:77:5e:
                    73:08:59:c8:8f:96:d5:e0:a3:fd:c5:a1:b7:66:93:
                    f0:66:e6:89:6e:b3:c7:d5:0c:9a:52:a7:c9:7a:bf:
                    4e:91:18:d4:83:1e:6b:c3:6c:98:43:7d:55:aa:84:
                    f4:6c:56:f2:05:a2:98:b6:d4:32:04:de:f5:5f:6b:
                    4f:2f:68:33:ac:6a:da:02:a4:c6:93:39:cc:46:65:
                    1a:18:5f:17:d6:d3:8b:f3:14:f4:3e:1a:20:eb:de:
                    8d:b9:a0:fa:71:b3:d5:7e:50:da:23:01:49:f7:be:
                    54:cc:e5:95:86:73:6e:78:00:f8:33:3b:42:74:88:
                    fd:6e:0b:15:c5:af:49:6a:fb:5e:63:f7:c9:be:f9:
                    4d:7d:98:c6:4b:89:9e:7b:c2:76:98:0c:68:08:fb:
                    55:1d:37:ee:da:d2:8a:7d:1a:6d:fc:39:c7:e7:17:
                    38:9f:df:2f:2e:e7:0e:a6:98:bd:eb:82:ed:f2:ca:
                    81:9e:94:d9:1c:63:c5:3a:f6:0a:de:00:f5:fb:a2:
                    0e:ce:70:94:bf:69:bc:a8:42:62:3e:47:1d:0e:86:
                    74:e7
                Exponent: 65537 (0x10001)
        X509v3 extensions:
            X509v3 Key Usage: critical
                Key Encipherment, Data Encipherment
            X509v3 Subject Key Identifier: 
                AA:D1:4D:C5:0F:20:83:8C:FC:B3:D6:05:C3:74:ED:0A:66:C9:BA:30
            X509v3 Authority Key Identifier: 
                keyid:DC:C7:5E:94:72:FD:83:79:74:0C:5E:03:2F:6A:DD:36:DC:27:15:EB

            X509v3 Extended Key Usage: 
                TLS Web Client Authentication
            X509v3 CRL Distribution Points: 

                Full Name:
                  URI:http://localhost:8181/sisintca.crl

            Authority Information Access: 
                OCSP - URI:http://localhost:8181/ocsp

    Signature Algorithm: sha1WithRSAEncryption
        05:50:b6:a7:8b:c4:4c:a1:42:22:ad:5c:e7:e8:c4:7c:69:45:
        19:be:42:ef:d1:55:05:0e:86:92:06:7b:72:74:22:fb:af:68:
        02:ab:ed:24:f0:c8:81:9e:58:28:d2:f3:36:a7:ab:aa:d2:c6:
        3c:e3:f0:74:f4:d1:9a:e5:0c:b3:e4:b5:d1:0b:3d:02:6c:ea:
        f8:50:ce:59:ca:d9:7c:37:5b:db:70:51:84:04:02:e1:ca:9a:
        a2:b3:65:d5:ea:5b:68:bf:d0:5a:b2:3f:5c:e9:f1:94:14:ad:
        97:84:84:87:6d:4b:dd:c4:fe:12:83:b2:f0:fb:f6:0d:4a:f7:
        5f:c4:1c:ea:f5:70:07:59:79:b6:7a:72:e4:72:8d:27:29:cc:
        d9:8c:3d:73:f8:e3:29:9e:70:83:4b:b8:6d:4a:69:83:03:4a:
        10:5c:76:d1:f8:a6:ba:47:b3:92:1c:e9:30:35:1d:8a:3e:80:
        dd:a0:e8:07:6b:18:83:cf:d8:92:7e:3d:fc:ac:23:9d:a0:e1:
        05:3d:89:5f:c9:6f:df:b8:d0:39:8b:1a:f3:35:53:8d:71:d6:
        a2:88:eb:8a:32:e8:32:75:45:13:eb:2a:9a:84:51:81:76:b0:
        29:71:45:dd:99:ae:ce:e6:00:ab:20:96:83:12:c5:d3:a6:d6:
        74:aa:52:42
-----BEGIN CERTIFICATE-----
MIIEVDCCAzygAwIBAgIBCjANBgkqhkiG9w0BAQUFADCBgDELMAkGA1UEBhMCQkUx
FzAVBgNVBAgMDlZsYWFtcy1CcmFiYW50MRAwDgYDVQQKDAdTaWVtZW5zMSgwJgYD
VQQLDB9TaWVtZW5zIElUIFNvbHV0aW9ucyAmIFNlcnZpY2VzMRwwGgYDVQQDDBNT
SVMgSW50ZXJtZWRpYXRlIENBMCIYDzIwMTAwNjA5MDAwMDAwWhgPMjAxMDA2MDkw
MTAwMDBaMH4xCzAJBgNVBAYTAkJFMRcwFQYDVQQIDA5WbGFhbXMtQnJhYmFudDEQ
MA4GA1UECgwHU2llbWVuczEoMCYGA1UECwwfU2llbWVucyBJVCBTb2x1dGlvbnMg
JiBTZXJ2aWNlczEaMBgGA1UEAwwRTklISUk9MDEwMDAwMDAxMDEwggEiMA0GCSqG
SIb3DQEBAQUAA4IBDwAwggEKAoIBAQDqqf/407luJXyJtEpN2LDThMC+kX5HS0V7
BafxN7JIRPwXwCeap/gLv2N3XnMIWciPltXgo/3Fobdmk/Bm5olus8fVDJpSp8l6
v06RGNSDHmvDbJhDfVWqhPRsVvIFopi21DIE3vVfa08vaDOsatoCpMaTOcxGZRoY
XxfW04vzFPQ+GiDr3o25oPpxs9V+UNojAUn3vlTM5ZWGc254APgzO0J0iP1uCxXF
r0lq+15j98m++U19mMZLiZ57wnaYDGgI+1UdN+7a0op9Gm38OcfnFzif3y8u5w6m
mL3rgu3yyoGelNkcY8U69greAPX7og7OcJS/abyoQmI+Rx0OhnTnAgMBAAGjgdUw
gdIwDgYDVR0PAQH/BAQDAgQwMB0GA1UdDgQWBBSq0U3FDyCDjPyz1gXDdO0KZsm6
MDAfBgNVHSMEGDAWgBTcx16Ucv2DeXQMXgMvat023CcV6zATBgNVHSUEDDAKBggr
BgEFBQcDAjAzBgNVHR8ELDAqMCigJqAkhiJodHRwOi8vbG9jYWxob3N0OjgxODEv
c2lzaW50Y2EuY3JsMDYGCCsGAQUFBwEBBCowKDAmBggrBgEFBQcwAYYaaHR0cDov
L2xvY2FsaG9zdDo4MTgxL29jc3AwDQYJKoZIhvcNAQEFBQADggEBAAVQtqeLxEyh
QiKtXOfoxHxpRRm+Qu/RVQUOhpIGe3J0IvuvaAKr7STwyIGeWCjS8zanq6rSxjzj
8HT00ZrlDLPktdELPQJs6vhQzlnK2Xw3W9twUYQEAuHKmqKzZdXqW2i/0FqyP1zp
8ZQUrZeEhIdtS93E/hKDsvD79g1K91/EHOr1cAdZebZ6cuRyjScpzNmMPXP44yme
cINLuG1KaYMDShBcdtH4prpHs5Ic6TA1HYo+gN2g6AdrGIPP2JJ+PfysI52g4QU9
iV/Jb9+40DmLGvM1U41x1qKI64oy6DJ1RRPrKpqEUYF2sClxRd2Zrs7mAKsgloMS
xdOm1nSqUkI=
-----END CERTIFICATE-----
