Certificate:
    Data:
        Version: 3 (0x2)
        Serial Number: 14 (0xe)
        Signature Algorithm: sha1WithRSAEncryption
        Issuer: C=BE, ST=Vlaams-Brabant, O=Siemens, OU=Siemens IT Solutions & Services, CN=SIS Intermediate CA
        Validity
            Not Before: Jul 12 13:22:43 2010 GMT
            Not After : Jul 12 13:22:43 2011 GMT
        Subject: C=BE, ST=Vlaams-Brabant, O=Siemens, OU=Siemens IT Solutions & Services, CN=NIHII=90000000101
        Subject Public Key Info:
            Public Key Algorithm: rsaEncryption
                Public-Key: (2048 bit)
                Modulus:
                    00:a4:24:0b:ac:8d:f5:68:82:fd:97:44:ab:6b:42:
                    a0:3d:d3:75:4e:c1:ea:5c:07:fc:3b:86:f1:92:69:
                    5d:e0:68:34:13:44:32:40:4a:e7:e1:2d:81:f9:75:
                    a8:69:8e:56:9e:df:02:9c:f5:bb:3e:4a:9b:89:db:
                    d2:df:02:93:71:aa:3d:a2:8c:98:08:79:cb:d0:a7:
                    82:8f:81:3d:a1:fe:c2:eb:b3:2e:88:ad:da:ab:52:
                    c2:ed:87:b8:97:3a:8c:65:ea:a2:09:f5:30:b9:ab:
                    92:a9:e0:01:bd:c1:1e:4b:83:08:c1:93:b1:69:f8:
                    d2:00:1a:eb:2c:79:65:d4:50:c3:79:67:a9:83:31:
                    54:2d:5e:4a:9f:ec:b2:e6:bc:19:90:d7:18:86:0e:
                    d9:09:21:db:d3:9a:02:34:a4:3e:e5:6b:13:82:e2:
                    9d:87:d0:8f:a5:d3:69:cd:d1:7c:f9:c8:ca:17:11:
                    6e:f3:01:8b:e6:2c:b7:3f:ed:1b:32:21:97:65:64:
                    0b:fb:df:62:77:22:ff:40:0d:b0:93:59:94:82:72:
                    fb:c3:bc:9b:b7:95:db:69:e6:56:04:1e:47:06:a2:
                    28:96:27:73:84:f5:41:82:59:34:29:3a:29:9d:26:
                    50:b8:c5:53:c4:d1:ff:c6:98:68:2a:8f:02:ff:13:
                    4b:27
                Exponent: 65537 (0x10001)
        X509v3 extensions:
            X509v3 Key Usage: critical
                Non Repudiation
            X509v3 Subject Key Identifier: 
                29:C8:27:2E:4C:65:12:A6:88:95:65:32:DE:B5:C1:34:CD:5E:C1:21
            X509v3 Authority Key Identifier: 
                keyid:DC:C7:5E:94:72:FD:83:79:74:0C:5E:03:2F:6A:DD:36:DC:27:15:EB

            X509v3 Extended Key Usage: 
                TLS Web Client Authentication
            X509v3 CRL Distribution Points: 

                Full Name:
                  URI:http://localhost:8181/sisintca.crl

            Authority Information Access: 
                OCSP - URI:http://localhost:8181/ocsp

    Signature Algorithm: sha1WithRSAEncryption
        68:b1:28:6e:ca:5d:a5:cb:64:92:76:c7:eb:f6:92:78:fd:89:
        8a:83:49:2f:8d:f1:d0:52:41:34:d9:10:f2:a8:a7:a5:73:bf:
        bc:ec:4f:b3:3c:b9:0f:14:4a:25:8a:da:7d:e4:c4:44:e5:9d:
        5d:a5:f7:80:47:ed:e0:b9:fd:46:88:e0:68:c2:01:ef:82:61:
        9d:07:72:1c:ca:56:37:39:64:e9:de:53:a2:53:48:d0:5a:71:
        4d:7a:94:a2:a1:33:f0:63:65:91:c8:00:b9:e9:8d:ed:92:08:
        ed:32:7c:55:ad:a0:0f:ab:d2:0b:ce:2b:76:10:e0:90:33:09:
        70:73:f9:5f:bc:71:ed:18:c1:fc:54:fc:cd:1a:51:7b:d7:3f:
        8f:76:79:38:0c:87:81:8b:d2:db:fd:a5:ee:21:98:43:6e:43:
        43:f4:b1:d8:77:e5:cd:b2:e4:b5:83:0f:ae:36:e0:4c:3c:fc:
        78:94:ef:75:00:f2:56:71:22:98:3c:fb:dc:cf:da:a1:98:00:
        d1:56:41:6a:bc:d2:5f:bf:c4:f0:83:ee:ef:71:cf:1f:00:af:
        64:81:5b:45:d1:0c:e5:1a:d7:58:4f:de:26:70:a4:a3:a7:ef:
        2a:5b:aa:68:f5:85:cb:73:0f:36:d1:03:45:f6:b5:2d:9f:b3:
        f3:2e:c9:69
-----BEGIN CERTIFICATE-----
MIIEUDCCAzigAwIBAgIBDjANBgkqhkiG9w0BAQUFADCBgDELMAkGA1UEBhMCQkUx
FzAVBgNVBAgMDlZsYWFtcy1CcmFiYW50MRAwDgYDVQQKDAdTaWVtZW5zMSgwJgYD
VQQLDB9TaWVtZW5zIElUIFNvbHV0aW9ucyAmIFNlcnZpY2VzMRwwGgYDVQQDDBNT
SVMgSW50ZXJtZWRpYXRlIENBMB4XDTEwMDcxMjEzMjI0M1oXDTExMDcxMjEzMjI0
M1owfjELMAkGA1UEBhMCQkUxFzAVBgNVBAgMDlZsYWFtcy1CcmFiYW50MRAwDgYD
VQQKDAdTaWVtZW5zMSgwJgYDVQQLDB9TaWVtZW5zIElUIFNvbHV0aW9ucyAmIFNl
cnZpY2VzMRowGAYDVQQDDBFOSUhJST05MDAwMDAwMDEwMTCCASIwDQYJKoZIhvcN
AQEBBQADggEPADCCAQoCggEBAKQkC6yN9WiC/ZdEq2tCoD3TdU7B6lwH/DuG8ZJp
XeBoNBNEMkBK5+Etgfl1qGmOVp7fApz1uz5Km4nb0t8Ck3GqPaKMmAh5y9Cngo+B
PaH+wuuzLoit2qtSwu2HuJc6jGXqogn1MLmrkqngAb3BHkuDCMGTsWn40gAa6yx5
ZdRQw3lnqYMxVC1eSp/ssua8GZDXGIYO2Qkh29OaAjSkPuVrE4LinYfQj6XTac3R
fPnIyhcRbvMBi+Ystz/tGzIhl2VkC/vfYnci/0ANsJNZlIJy+8O8m7eV22nmVgQe
RwaiKJYnc4T1QYJZNCk6KZ0mULjFU8TR/8aYaCqPAv8TSycCAwEAAaOB1TCB0jAO
BgNVHQ8BAf8EBAMCBkAwHQYDVR0OBBYEFCnIJy5MZRKmiJVlMt61wTTNXsEhMB8G
A1UdIwQYMBaAFNzHXpRy/YN5dAxeAy9q3TbcJxXrMBMGA1UdJQQMMAoGCCsGAQUF
BwMCMDMGA1UdHwQsMCowKKAmoCSGImh0dHA6Ly9sb2NhbGhvc3Q6ODE4MS9zaXNp
bnRjYS5jcmwwNgYIKwYBBQUHAQEEKjAoMCYGCCsGAQUFBzABhhpodHRwOi8vbG9j
YWxob3N0OjgxODEvb2NzcDANBgkqhkiG9w0BAQUFAAOCAQEAaLEobspdpctkknbH
6/aSeP2JioNJL43x0FJBNNkQ8qinpXO/vOxPszy5DxRKJYrafeTEROWdXaX3gEft
4Ln9RojgaMIB74JhnQdyHMpWNzlk6d5TolNI0FpxTXqUoqEz8GNlkcgAuemN7ZII
7TJ8Va2gD6vSC84rdhDgkDMJcHP5X7xx7RjB/FT8zRpRe9c/j3Z5OAyHgYvS2/2l
7iGYQ25DQ/Sx2HflzbLktYMPrjbgTDz8eJTvdQDyVnEimDz73M/aoZgA0VZBarzS
X7/E8IPu73HPHwCvZIFbRdEM5RrXWE/eJnCko6fvKluqaPWFy3MPNtEDRfa1LZ+z
8y7JaQ==
-----END CERTIFICATE-----
