Certificate:
    Data:
        Version: 3 (0x2)
        Serial Number: 12 (0xc)
        Signature Algorithm: sha1WithRSAEncryption
        Issuer: C=BE, ST=Vlaams-Brabant, O=Siemens, OU=Siemens IT Solutions & Services, CN=SIS Intermediate CA
        Validity
            Not Before: Jun 10 07:54:21 2010 GMT
            Not After : Jun 10 07:54:21 2011 GMT
        Subject: C=BE, ST=Vlaams-Brabant, O=Siemens, OU=Siemens IT Solutions & Services, CN=NIHII=11000000101
        Subject Public Key Info:
            Public Key Algorithm: rsaEncryption
                Public-Key: (1024 bit)
                Modulus:
                    00:c5:b9:df:5d:6b:96:61:fd:90:c8:af:6f:e5:4d:
                    e0:89:e9:42:b7:87:82:41:25:e0:c0:8e:4f:72:8c:
                    be:91:d5:f8:10:eb:4e:41:fa:32:35:e8:c9:d7:79:
                    d6:9e:06:ce:d1:3a:ac:4f:8b:73:35:c6:de:f3:88:
                    7d:a5:2d:8f:88:d0:35:f6:3c:5c:a7:e8:7d:fb:00:
                    2c:eb:0e:da:4f:64:b0:0b:f7:39:a9:92:37:f3:7c:
                    21:bf:97:ce:fe:c2:78:be:6e:1f:01:7d:2b:b3:b9:
                    b1:72:ee:07:a8:04:b4:16:e2:c9:38:c8:f2:cf:ca:
                    e0:d2:dc:b9:be:01:fa:81:7d
                Exponent: 65537 (0x10001)
        X509v3 extensions:
            X509v3 Key Usage: critical
                Digital Signature
            X509v3 Subject Key Identifier: 
                9F:27:E2:7F:57:4C:C0:F3:DD:3A:B0:61:87:05:71:AD:F4:A0:F0:76
            X509v3 Authority Key Identifier: 
                keyid:DC:C7:5E:94:72:FD:83:79:74:0C:5E:03:2F:6A:DD:36:DC:27:15:EB

            X509v3 Extended Key Usage: 
                TLS Web Client Authentication
            X509v3 CRL Distribution Points: 

                Full Name:
                  URI:http://localhost:8181/sisintca.crl

            Authority Information Access: 
                OCSP - URI:http://localhost:8181/ocsp

    Signature Algorithm: sha1WithRSAEncryption
        08:4f:7a:53:4f:ef:a1:10:a7:e1:2e:67:e0:c9:03:fa:e1:df:
        8f:66:30:09:46:e3:75:c6:30:71:a8:2e:3d:f5:c9:8f:f6:10:
        40:fb:18:68:20:7a:2a:ba:a6:7d:b7:bf:db:c8:ff:e1:8c:ac:
        56:64:5e:43:d7:d9:cc:fe:af:23:e8:ee:b3:b5:f6:80:bb:7d:
        d1:b0:4e:fe:4b:e3:6c:89:33:76:9f:9e:08:cb:8a:8c:f6:eb:
        6b:53:0e:e3:ff:f0:76:c2:59:ba:2b:64:62:15:0c:c2:e0:bf:
        83:d6:1d:09:8e:a9:a3:ba:1a:92:39:b8:61:6a:e2:a3:5d:a5:
        40:9c:c1:26:6b:70:39:3b:bc:60:5e:e6:fa:56:23:ea:ca:c1:
        8a:cc:ac:6b:11:96:c5:7b:bf:6f:82:29:12:6b:03:20:f2:fa:
        ce:b4:4d:e1:1c:ec:eb:76:79:5d:32:cd:65:69:e9:20:38:e9:
        96:e6:8a:90:91:c9:87:07:dc:0b:7f:77:30:b0:56:f5:1f:93:
        8b:e0:0f:9e:3e:c4:c9:73:c7:8a:5c:95:62:75:95:f8:83:05:
        3c:fa:d3:20:01:a3:1d:0d:d5:fe:ae:15:6f:18:90:9b:2f:88:
        5a:52:2b:0e:db:5d:f3:68:db:90:7a:ae:23:4d:3a:48:b4:2b:
        de:1c:24:11
-----BEGIN CERTIFICATE-----
MIIDzDCCArSgAwIBAgIBDDANBgkqhkiG9w0BAQUFADCBgDELMAkGA1UEBhMCQkUx
FzAVBgNVBAgMDlZsYWFtcy1CcmFiYW50MRAwDgYDVQQKDAdTaWVtZW5zMSgwJgYD
VQQLDB9TaWVtZW5zIElUIFNvbHV0aW9ucyAmIFNlcnZpY2VzMRwwGgYDVQQDDBNT
SVMgSW50ZXJtZWRpYXRlIENBMB4XDTEwMDYxMDA3NTQyMVoXDTExMDYxMDA3NTQy
MVowfjELMAkGA1UEBhMCQkUxFzAVBgNVBAgMDlZsYWFtcy1CcmFiYW50MRAwDgYD
VQQKDAdTaWVtZW5zMSgwJgYDVQQLDB9TaWVtZW5zIElUIFNvbHV0aW9ucyAmIFNl
cnZpY2VzMRowGAYDVQQDDBFOSUhJST0xMTAwMDAwMDEwMTCBnzANBgkqhkiG9w0B
AQEFAAOBjQAwgYkCgYEAxbnfXWuWYf2QyK9v5U3gielCt4eCQSXgwI5Pcoy+kdX4
EOtOQfoyNejJ13nWngbO0TqsT4tzNcbe84h9pS2PiNA19jxcp+h9+wAs6w7aT2Sw
C/c5qZI383whv5fO/sJ4vm4fAX0rs7mxcu4HqAS0FuLJOMjyz8rg0ty5vgH6gX0C
AwEAAaOB1TCB0jAOBgNVHQ8BAf8EBAMCB4AwHQYDVR0OBBYEFJ8n4n9XTMDz3Tqw
YYcFca30oPB2MB8GA1UdIwQYMBaAFNzHXpRy/YN5dAxeAy9q3TbcJxXrMBMGA1Ud
JQQMMAoGCCsGAQUFBwMCMDMGA1UdHwQsMCowKKAmoCSGImh0dHA6Ly9sb2NhbGhv
c3Q6ODE4MS9zaXNpbnRjYS5jcmwwNgYIKwYBBQUHAQEEKjAoMCYGCCsGAQUFBzAB
hhpodHRwOi8vbG9jYWxob3N0OjgxODEvb2NzcDANBgkqhkiG9w0BAQUFAAOCAQEA
CE96U0/voRCn4S5n4MkD+uHfj2YwCUbjdcYwcaguPfXJj/YQQPsYaCB6Krqmfbe/
28j/4YysVmReQ9fZzP6vI+jus7X2gLt90bBO/kvjbIkzdp+eCMuKjPbra1MO4//w
dsJZuitkYhUMwuC/g9YdCY6po7oakjm4YWrio12lQJzBJmtwOTu8YF7m+lYj6srB
isysaxGWxXu/b4IpEmsDIPL6zrRN4Rzs63Z5XTLNZWnpIDjpluaKkJHJhwfcC393
MLBW9R+Ti+APnj7EyXPHilyVYnWV+IMFPPrTIAGjHQ3V/q4VbxiQmy+IWlIrDttd
82jbkHquI006SLQr3hwkEQ==
-----END CERTIFICATE-----
