Certificate:
    Data:
        Version: 3 (0x2)
        Serial Number: 8 (0x8)
        Signature Algorithm: sha1WithRSAEncryption
        Issuer: C=BE, ST=Vlaams-Brabant, O=Siemens, OU=Siemens IT Solutions & Services, CN=SIS Intermediate CA
        Validity
            Not Before: Jun  9 05:55:48 2010 GMT
            Not After : Jun  9 05:55:48 2011 GMT
        Subject: C=BE, ST=Vlaams-Brabant, O=Siemens, OU=Siemens IT Solutions & Services, CN=NIHII=80000000101
        Subject Public Key Info:
            Public Key Algorithm: rsaEncryption
                Public-Key: (2048 bit)
                Modulus:
                    00:b2:6a:e4:5f:79:52:9e:cc:fa:3f:13:47:6f:18:
                    35:6d:50:20:3a:8d:e7:f1:d1:5c:c6:c9:e2:70:25:
                    83:55:9e:00:4f:87:16:fc:ea:7b:51:24:32:c7:ec:
                    23:d4:8e:db:44:1f:78:e2:39:26:de:bc:9d:3a:c7:
                    38:81:33:73:f7:ed:75:76:bb:0c:6d:f7:ef:42:37:
                    8b:f0:bf:5d:43:3e:ca:de:ba:ae:26:3a:89:bc:39:
                    2d:00:51:5d:db:c7:a1:ac:a2:02:eb:d5:1d:04:d7:
                    f7:45:9a:9b:12:6a:09:e7:56:43:cb:f6:2b:e9:5e:
                    09:6b:c9:e7:3a:9f:06:d4:8d:1a:7e:06:64:92:f3:
                    18:e8:d0:fe:7a:07:a6:b4:fd:85:0c:9a:72:45:cb:
                    73:a2:e8:a1:d6:b9:a1:50:14:cb:e1:58:0b:fd:89:
                    1a:30:cb:b1:00:21:49:c6:94:35:3a:cf:a0:57:3c:
                    a5:97:5d:a2:98:90:24:7f:71:d8:8b:f5:a1:26:10:
                    de:88:99:0b:02:0a:ab:03:5d:b8:ed:3f:e9:82:b4:
                    43:3c:e8:d5:96:21:3f:61:ee:8b:f0:94:97:50:76:
                    b0:19:3c:5c:bd:d9:37:8d:da:ea:22:05:55:d8:49:
                    48:3d:6d:16:a6:56:da:e9:07:37:3f:e7:95:ce:67:
                    90:8d
                Exponent: 65537 (0x10001)
        X509v3 extensions:
            X509v3 Basic Constraints: 
                CA:FALSE
            X509v3 Key Usage: critical
                Digital Signature, Non Repudiation
            X509v3 Subject Key Identifier: 
                01:B0:C9:70:F8:E0:AE:15:28:30:28:93:29:C7:ED:6A:C0:68:2B:8A
            X509v3 Authority Key Identifier: 
                keyid:DC:C7:5E:94:72:FD:83:79:74:0C:5E:03:2F:6A:DD:36:DC:27:15:EB

            X509v3 Extended Key Usage: 
                TLS Web Client Authentication
            X509v3 CRL Distribution Points: 

                Full Name:
                  URI:http://localhost:8181/sisintca.crl

            Authority Information Access: 
                OCSP - URI:http://localhost:8181/ocsp

    Signature Algorithm: sha1WithRSAEncryption
        b6:d8:9d:01:fe:17:57:6d:4d:08:07:32:5b:1a:5b:e6:68:0a:
        77:02:0f:e2:42:11:06:4b:5c:fe:1d:a6:bb:2d:50:45:95:f4:
        5e:25:78:0a:c0:05:8d:56:a5:58:96:5d:a5:9d:5e:af:49:a6:
        9b:e7:9d:bb:4f:8e:43:5a:40:5a:06:42:90:36:cb:f7:39:2b:
        1d:2b:a3:b8:62:d2:41:89:bc:50:38:a4:6b:a8:46:ca:8b:44:
        73:14:08:83:54:28:94:39:ab:e0:c2:0e:66:de:82:95:b6:aa:
        e4:46:e3:8f:29:1e:8d:c6:e5:ba:72:1d:e4:f7:c9:7f:bd:19:
        ff:7e:2e:0a:05:db:91:38:cf:51:a3:11:22:9c:57:96:4c:49:
        ee:71:49:0b:33:fa:6a:eb:c4:86:76:51:cd:c6:d0:0d:4e:88:
        89:ea:6c:eb:48:bc:19:f2:8a:97:bf:aa:db:ea:72:41:16:12:
        25:6c:e6:c0:44:7f:88:7f:f1:ed:af:fd:d1:e2:dc:77:f3:e6:
        37:ed:60:a4:08:d1:df:37:ba:fb:80:f1:fe:9e:76:4a:41:8f:
        7b:13:63:52:be:75:a2:e5:95:ae:66:27:b7:de:9b:ad:65:13:
        52:b8:4d:b6:1e:b7:b3:d2:15:c9:bb:c9:c4:7f:f3:a5:a5:34:
        e4:e3:a9:c6
-----BEGIN CERTIFICATE-----
MIIEWzCCA0OgAwIBAgIBCDANBgkqhkiG9w0BAQUFADCBgDELMAkGA1UEBhMCQkUx
FzAVBgNVBAgMDlZsYWFtcy1CcmFiYW50MRAwDgYDVQQKDAdTaWVtZW5zMSgwJgYD
VQQLDB9TaWVtZW5zIElUIFNvbHV0aW9ucyAmIFNlcnZpY2VzMRwwGgYDVQQDDBNT
SVMgSW50ZXJtZWRpYXRlIENBMB4XDTEwMDYwOTA1NTU0OFoXDTExMDYwOTA1NTU0
OFowfjELMAkGA1UEBhMCQkUxFzAVBgNVBAgMDlZsYWFtcy1CcmFiYW50MRAwDgYD
VQQKDAdTaWVtZW5zMSgwJgYDVQQLDB9TaWVtZW5zIElUIFNvbHV0aW9ucyAmIFNl
cnZpY2VzMRowGAYDVQQDDBFOSUhJST04MDAwMDAwMDEwMTCCASIwDQYJKoZIhvcN
AQEBBQADggEPADCCAQoCggEBALJq5F95Up7M+j8TR28YNW1QIDqN5/HRXMbJ4nAl
g1WeAE+HFvzqe1EkMsfsI9SO20QfeOI5Jt68nTrHOIEzc/ftdXa7DG3370I3i/C/
XUM+yt66riY6ibw5LQBRXdvHoayiAuvVHQTX90WamxJqCedWQ8v2K+leCWvJ5zqf
BtSNGn4GZJLzGOjQ/noHprT9hQyackXLc6Looda5oVAUy+FYC/2JGjDLsQAhScaU
NTrPoFc8pZddopiQJH9x2Iv1oSYQ3oiZCwIKqwNduO0/6YK0Qzzo1ZYhP2Hui/CU
l1B2sBk8XL3ZN43a6iIFVdhJSD1tFqZW2ukHNz/nlc5nkI0CAwEAAaOB4DCB3TAJ
BgNVHRMEAjAAMA4GA1UdDwEB/wQEAwIGwDAdBgNVHQ4EFgQUAbDJcPjgrhUoMCiT
KcftasBoK4owHwYDVR0jBBgwFoAU3MdelHL9g3l0DF4DL2rdNtwnFeswEwYDVR0l
BAwwCgYIKwYBBQUHAwIwMwYDVR0fBCwwKjAooCagJIYiaHR0cDovL2xvY2FsaG9z
dDo4MTgxL3Npc2ludGNhLmNybDA2BggrBgEFBQcBAQQqMCgwJgYIKwYBBQUHMAGG
Gmh0dHA6Ly9sb2NhbGhvc3Q6ODE4MS9vY3NwMA0GCSqGSIb3DQEBBQUAA4IBAQC2
2J0B/hdXbU0IBzJbGlvmaAp3Ag/iQhEGS1z+Haa7LVBFlfReJXgKwAWNVqVYll2l
nV6vSaab5527T45DWkBaBkKQNsv3OSsdK6O4YtJBibxQOKRrqEbKi0RzFAiDVCiU
Oavgwg5m3oKVtqrkRuOPKR6NxuW6ch3k98l/vRn/fi4KBduROM9RoxEinFeWTEnu
cUkLM/pq68SGdlHNxtANToiJ6mzrSLwZ8oqXv6rb6nJBFhIlbObARH+If/Htr/3R
4tx38+Y37WCkCNHfN7r7gPH+nnZKQY97E2NSvnWi5ZWuZie33putZRNSuE22Hrez
0hXJu8nEf/OlpTTk46nG
-----END CERTIFICATE-----
