Certificate:
    Data:
        Version: 3 (0x2)
        Serial Number: 1 (0x1)
        Signature Algorithm: sha1WithRSAEncryption
        Issuer: C=BE, ST=Vlaams-Brabant, O=Siemens, OU=Siemens IT Solutions & Services, CN=SIS Intermediate CA
        Validity
            Not Before: Jun  8 11:06:51 2010 GMT
            Not After : Jun  8 11:06:51 2011 GMT
        Subject: C=BE, ST=Vlaams-Brabant, O=Siemens, OU=Siemens IT Solutions & Services, CN=NIHII=10000000101
        Subject Public Key Info:
            Public Key Algorithm: rsaEncryption
                Public-Key: (2048 bit)
                Modulus:
                    00:e0:6e:b3:57:65:a9:47:40:3a:e0:c6:87:4b:c4:
                    59:ed:f1:07:7b:6a:57:9f:a9:c7:2e:ae:85:e8:1a:
                    87:99:75:d8:14:3e:dd:c2:cf:f2:f1:5f:bd:a6:23:
                    52:7b:b4:37:0b:87:06:87:9c:d4:af:3a:0b:56:fe:
                    ea:bb:fd:c8:91:9c:e8:bb:35:b4:b3:e5:92:fc:47:
                    0f:be:fc:13:52:87:12:7b:a6:19:da:b0:f3:c5:60:
                    55:cc:95:88:5e:29:f9:eb:cd:35:74:ab:b4:39:7e:
                    0a:6b:f6:f8:78:da:3f:f7:d3:f1:5b:d3:13:e1:43:
                    3f:63:5d:d4:59:05:bc:ba:98:ab:ae:ee:f1:0a:ea:
                    79:96:8a:85:b3:a2:1f:46:f7:32:93:1c:0d:ca:fa:
                    a9:33:a1:f2:bb:d3:ea:4b:31:54:89:ef:f2:8e:6c:
                    c0:c0:f4:c9:d4:db:3b:70:59:ef:49:bd:06:2a:4d:
                    b6:8d:3d:c5:73:48:21:0d:82:bc:81:9b:b8:84:c2:
                    d1:54:f1:48:c4:9a:06:59:b2:ba:f8:ac:92:98:eb:
                    97:75:a5:77:37:15:61:f9:85:fe:c3:12:8e:4a:cb:
                    57:b5:d6:c5:88:4f:a7:6f:c4:b4:a0:e2:15:59:bd:
                    77:43:3c:2f:22:89:c3:96:f5:5c:86:fb:1a:5b:57:
                    bf:03
                Exponent: 65537 (0x10001)
        X509v3 extensions:
            X509v3 Key Usage: critical
                Digital Signature
            X509v3 Subject Key Identifier: 
                2F:BE:63:B7:FE:56:03:83:8E:83:1E:6C:49:C9:66:98:E1:B1:68:F5
            X509v3 Authority Key Identifier: 
                keyid:DC:C7:5E:94:72:FD:83:79:74:0C:5E:03:2F:6A:DD:36:DC:27:15:EB

            X509v3 Extended Key Usage: 
                TLS Web Client Authentication
            X509v3 CRL Distribution Points: 

                Full Name:
                  URI:http://localhost:8181/sisintca.crl

            Authority Information Access: 
                OCSP - URI:http://localhost:8181/ocsp

    Signature Algorithm: sha1WithRSAEncryption
        9d:a8:25:5f:21:d2:33:b8:9f:35:7e:95:98:9a:99:3a:eb:0c:
        82:36:20:26:24:ce:b9:7d:2b:b8:a0:9f:f6:35:d2:a9:a4:16:
        bc:36:28:31:7d:3a:1c:c2:ec:e5:c9:cc:da:f0:c7:b5:b3:4f:
        22:f7:62:79:f9:b0:49:a9:2b:45:d1:e8:8b:12:b5:d4:c6:36:
        a5:a3:bd:b0:7a:90:5c:fe:68:96:b8:fc:d9:95:1e:a7:cd:3f:
        bb:76:42:3d:c4:5d:1a:74:88:4d:80:f6:c7:0e:ad:d0:2f:f3:
        ca:09:d2:e6:bd:66:32:83:ba:10:9a:58:e5:d3:3a:b3:02:fb:
        b7:e1:b9:38:79:3a:ce:a4:2d:68:a1:df:0c:79:38:90:67:13:
        e1:78:1a:37:30:ef:96:11:02:03:8a:2b:16:27:27:2e:f3:0d:
        e8:5c:63:a0:d1:39:d3:7d:41:0f:47:23:1d:9b:ef:35:77:ac:
        34:07:16:ae:89:0b:a8:75:6d:9b:9c:5f:79:45:30:ff:45:08:
        df:68:b1:e3:83:74:bb:49:1b:5c:cd:de:72:e5:97:84:ee:96:
        d7:be:c4:dd:14:9d:42:b6:02:81:22:cc:24:4d:91:d1:4f:9d:
        fb:6a:0e:48:7b:e8:26:72:74:88:b6:a4:22:cf:32:49:23:25:
        57:1c:6a:ff
-----BEGIN CERTIFICATE-----
MIIEUDCCAzigAwIBAgIBATANBgkqhkiG9w0BAQUFADCBgDELMAkGA1UEBhMCQkUx
FzAVBgNVBAgMDlZsYWFtcy1CcmFiYW50MRAwDgYDVQQKDAdTaWVtZW5zMSgwJgYD
VQQLDB9TaWVtZW5zIElUIFNvbHV0aW9ucyAmIFNlcnZpY2VzMRwwGgYDVQQDDBNT
SVMgSW50ZXJtZWRpYXRlIENBMB4XDTEwMDYwODExMDY1MVoXDTExMDYwODExMDY1
MVowfjELMAkGA1UEBhMCQkUxFzAVBgNVBAgMDlZsYWFtcy1CcmFiYW50MRAwDgYD
VQQKDAdTaWVtZW5zMSgwJgYDVQQLDB9TaWVtZW5zIElUIFNvbHV0aW9ucyAmIFNl
cnZpY2VzMRowGAYDVQQDDBFOSUhJST0xMDAwMDAwMDEwMTCCASIwDQYJKoZIhvcN
AQEBBQADggEPADCCAQoCggEBAOBus1dlqUdAOuDGh0vEWe3xB3tqV5+pxy6uhega
h5l12BQ+3cLP8vFfvaYjUnu0NwuHBoec1K86C1b+6rv9yJGc6Ls1tLPlkvxHD778
E1KHEnumGdqw88VgVcyViF4p+evNNXSrtDl+Cmv2+HjaP/fT8VvTE+FDP2Nd1FkF
vLqYq67u8QrqeZaKhbOiH0b3MpMcDcr6qTOh8rvT6ksxVInv8o5swMD0ydTbO3BZ
70m9BipNto09xXNIIQ2CvIGbuITC0VTxSMSaBlmyuviskpjrl3WldzcVYfmF/sMS
jkrLV7XWxYhPp2/EtKDiFVm9d0M8LyKJw5b1XIb7GltXvwMCAwEAAaOB1TCB0jAO
BgNVHQ8BAf8EBAMCB4AwHQYDVR0OBBYEFC++Y7f+VgODjoMebEnJZpjhsWj1MB8G
A1UdIwQYMBaAFNzHXpRy/YN5dAxeAy9q3TbcJxXrMBMGA1UdJQQMMAoGCCsGAQUF
BwMCMDMGA1UdHwQsMCowKKAmoCSGImh0dHA6Ly9sb2NhbGhvc3Q6ODE4MS9zaXNp
bnRjYS5jcmwwNgYIKwYBBQUHAQEEKjAoMCYGCCsGAQUFBzABhhpodHRwOi8vbG9j
YWxob3N0OjgxODEvb2NzcDANBgkqhkiG9w0BAQUFAAOCAQEAnaglXyHSM7ifNX6V
mJqZOusMgjYgJiTOuX0ruKCf9jXSqaQWvDYoMX06HMLs5cnM2vDHtbNPIvdiefmw
SakrRdHoixK11MY2paO9sHqQXP5olrj82ZUep80/u3ZCPcRdGnSITYD2xw6t0C/z
ygnS5r1mMoO6EJpY5dM6swL7t+G5OHk6zqQtaKHfDHk4kGcT4XgaNzDvlhECA4or
FicnLvMN6FxjoNE5031BD0cjHZvvNXesNAcWrokLqHVtm5xfeUUw/0UI32ix44N0
u0kbXM3ecuWXhO6W177E3RSdQrYCgSLMJE2R0U+d+2oOSHvoJnJ0iLakIs8ySSMl
Vxxq/w==
-----END CERTIFICATE-----
