Certificate:
    Data:
        Version: 3 (0x2)
        Serial Number: 11 (0xb)
        Signature Algorithm: sha1WithRSAEncryption
        Issuer: C=BE, ST=Vlaams-Brabant, O=Siemens, OU=Siemens IT Solutions & Services, CN=SIS Intermediate CA
        Validity
            Not Before: Jun  7 00:00:00 2015 GMT
            Not After : Jun  7 01:00:00 2015 GMT
        Subject: C=BE, ST=Vlaams-Brabant, O=Siemens, OU=Siemens IT Solutions & Services, CN=NIHII=02000000101
        Subject Public Key Info:
            Public Key Algorithm: rsaEncryption
                Public-Key: (2048 bit)
                Modulus:
                    00:b5:fa:be:1b:27:3e:81:99:cf:b1:59:6e:01:58:
                    32:b0:92:68:a5:e7:09:ad:c6:f7:59:25:41:1a:d3:
                    61:7b:65:bd:08:e8:53:a4:31:c2:21:54:d0:5c:97:
                    6b:59:75:bc:7a:ee:ca:10:22:bb:83:7f:52:e1:eb:
                    2e:6a:b6:b8:ef:de:90:cd:4c:92:97:62:30:02:6c:
                    ee:5b:50:53:3a:28:0d:27:ed:04:20:15:62:6d:8e:
                    4a:a9:1f:42:f0:33:7b:04:b5:07:a4:cb:9f:4a:30:
                    a2:4f:e5:8b:65:ee:42:30:c8:87:3b:1d:c4:05:eb:
                    f3:c5:84:6a:cc:2a:63:e5:d9:fb:43:be:1a:22:45:
                    86:37:4c:12:eb:9b:6f:41:97:6f:45:e0:1e:a2:42:
                    35:b6:5e:50:bc:e1:a8:71:dc:f6:df:81:c9:91:ca:
                    8e:65:51:fe:8b:08:cc:4e:b1:9d:a7:f8:ea:6f:3f:
                    ef:92:4f:fa:b9:a8:43:32:80:c4:c8:3a:20:32:8f:
                    29:f4:13:ca:74:a9:57:b1:26:67:c8:e3:b3:48:bf:
                    06:cf:70:aa:22:d7:36:9b:fa:ec:c8:10:11:5b:07:
                    08:e8:99:d9:53:18:22:c5:be:e3:43:87:7a:17:36:
                    40:cc:52:c3:6d:53:c1:07:6c:34:3e:a2:75:d8:f6:
                    4f:1d
                Exponent: 65537 (0x10001)
        X509v3 extensions:
            X509v3 Key Usage: critical
                Key Encipherment, Data Encipherment
            X509v3 Subject Key Identifier: 
                BC:4D:FC:06:A1:6B:0C:3C:A6:5B:53:D2:A1:D9:51:E0:4C:AC:AA:42
            X509v3 Authority Key Identifier: 
                keyid:DC:C7:5E:94:72:FD:83:79:74:0C:5E:03:2F:6A:DD:36:DC:27:15:EB

            X509v3 Extended Key Usage: 
                TLS Web Client Authentication
            X509v3 CRL Distribution Points: 

                Full Name:
                  URI:http://localhost:8181/sisintca.crl

            Authority Information Access: 
                OCSP - URI:http://localhost:8181/ocsp

    Signature Algorithm: sha1WithRSAEncryption
        52:79:bb:28:78:95:a6:bc:a3:5c:62:ab:06:cd:5d:2e:31:1e:
        16:a2:d8:b5:0e:1f:2a:bf:d1:48:7f:7e:09:ad:f7:48:4c:5a:
        aa:d7:3d:0e:d4:18:b9:43:17:e4:4c:18:5c:ea:f2:57:97:f8:
        11:20:6a:3d:2f:24:1c:68:88:dc:7e:ab:37:d1:e1:92:79:63:
        6e:8a:5d:1a:63:ae:d9:85:c8:a9:0a:34:25:dd:aa:4f:7c:75:
        5f:58:2e:9f:6f:bc:9c:82:5e:cd:c6:99:b4:54:a5:cf:c6:e8:
        02:60:0f:5e:6e:98:f4:a0:70:12:44:5f:2a:aa:19:14:6b:57:
        f9:41:25:36:2d:1e:9c:2a:8d:08:0b:88:ae:e9:c5:41:b0:58:
        ed:6b:8e:f5:1e:29:21:d9:e0:48:0c:6e:35:85:59:a3:3b:24:
        ab:9e:c4:52:b1:cb:f6:cb:d4:e9:fa:01:dc:be:fb:dc:b1:2b:
        84:ac:67:fa:2b:45:3b:64:b5:b0:02:3c:2c:3e:a3:35:d4:0b:
        f5:7f:f2:44:07:a0:ad:30:bb:cd:e9:d8:f4:d8:65:c1:17:be:
        8d:29:64:96:2b:75:c8:ba:5a:30:82:0a:de:aa:85:af:68:96:
        bd:cb:38:5c:54:e3:d2:67:59:dc:f2:ae:f7:9e:72:ec:17:14:
        f5:2e:50:6f
-----BEGIN CERTIFICATE-----
MIIEVDCCAzygAwIBAgIBCzANBgkqhkiG9w0BAQUFADCBgDELMAkGA1UEBhMCQkUx
FzAVBgNVBAgMDlZsYWFtcy1CcmFiYW50MRAwDgYDVQQKDAdTaWVtZW5zMSgwJgYD
VQQLDB9TaWVtZW5zIElUIFNvbHV0aW9ucyAmIFNlcnZpY2VzMRwwGgYDVQQDDBNT
SVMgSW50ZXJtZWRpYXRlIENBMCIYDzIwMTUwNjA3MDAwMDAwWhgPMjAxNTA2MDcw
MTAwMDBaMH4xCzAJBgNVBAYTAkJFMRcwFQYDVQQIDA5WbGFhbXMtQnJhYmFudDEQ
MA4GA1UECgwHU2llbWVuczEoMCYGA1UECwwfU2llbWVucyBJVCBTb2x1dGlvbnMg
JiBTZXJ2aWNlczEaMBgGA1UEAwwRTklISUk9MDIwMDAwMDAxMDEwggEiMA0GCSqG
SIb3DQEBAQUAA4IBDwAwggEKAoIBAQC1+r4bJz6Bmc+xWW4BWDKwkmil5wmtxvdZ
JUEa02F7Zb0I6FOkMcIhVNBcl2tZdbx67soQIruDf1Lh6y5qtrjv3pDNTJKXYjAC
bO5bUFM6KA0n7QQgFWJtjkqpH0LwM3sEtQeky59KMKJP5Ytl7kIwyIc7HcQF6/PF
hGrMKmPl2ftDvhoiRYY3TBLrm29Bl29F4B6iQjW2XlC84ahx3PbfgcmRyo5lUf6L
CMxOsZ2n+OpvP++ST/q5qEMygMTIOiAyjyn0E8p0qVexJmfI47NIvwbPcKoi1zab
+uzIEBFbBwjomdlTGCLFvuNDh3oXNkDMUsNtU8EHbDQ+onXY9k8dAgMBAAGjgdUw
gdIwDgYDVR0PAQH/BAQDAgQwMB0GA1UdDgQWBBS8TfwGoWsMPKZbU9Kh2VHgTKyq
QjAfBgNVHSMEGDAWgBTcx16Ucv2DeXQMXgMvat023CcV6zATBgNVHSUEDDAKBggr
BgEFBQcDAjAzBgNVHR8ELDAqMCigJqAkhiJodHRwOi8vbG9jYWxob3N0OjgxODEv
c2lzaW50Y2EuY3JsMDYGCCsGAQUFBwEBBCowKDAmBggrBgEFBQcwAYYaaHR0cDov
L2xvY2FsaG9zdDo4MTgxL29jc3AwDQYJKoZIhvcNAQEFBQADggEBAFJ5uyh4laa8
o1xiqwbNXS4xHhai2LUOHyq/0Uh/fgmt90hMWqrXPQ7UGLlDF+RMGFzq8leX+BEg
aj0vJBxoiNx+qzfR4ZJ5Y26KXRpjrtmFyKkKNCXdqk98dV9YLp9vvJyCXs3GmbRU
pc/G6AJgD15umPSgcBJEXyqqGRRrV/lBJTYtHpwqjQgLiK7pxUGwWO1rjvUeKSHZ
4EgMbjWFWaM7JKuexFKxy/bL1On6Ady++9yxK4SsZ/orRTtktbACPCw+ozXUC/V/
8kQHoK0wu83p2PTYZcEXvo0pZJYrdci6WjCCCt6qha9olr3LOFxU49JnWdzyrvee
cuwXFPUuUG8=
-----END CERTIFICATE-----
