Certificate:
    Data:
        Version: 3 (0x2)
        Serial Number: 2 (0x2)
        Signature Algorithm: sha1WithRSAEncryption
        Issuer: C=BE, ST=Vlaams-Brabant, O=Siemens, OU=Siemens IT Solutions & Services, CN=SIS Intermediate CA
        Validity
            Not Before: Jun  8 11:18:28 2010 GMT
            Not After : Jun  8 11:18:28 2011 GMT
        Subject: C=BE, ST=Vlaams-Brabant, O=Siemens, OU=Siemens IT Solutions & Services, CN=NIHII=20000000101
        Subject Public Key Info:
            Public Key Algorithm: rsaEncryption
                Public-Key: (2048 bit)
                Modulus:
                    00:9f:d7:e8:d0:3f:cf:58:40:9a:09:2b:99:40:15:
                    8e:e8:b4:c7:1b:6f:01:d3:10:2e:f4:c3:33:1a:bd:
                    f5:65:d2:68:a4:34:b3:20:b8:4f:87:11:2f:af:05:
                    aa:17:c3:b8:d5:83:19:56:88:d1:93:be:f9:73:4c:
                    02:73:00:d6:28:0c:4f:58:ae:39:fa:6e:32:e1:63:
                    10:8e:c8:e7:2a:79:d5:7f:72:57:29:22:dc:12:f8:
                    2c:68:fe:6d:ba:8e:7a:85:66:6a:40:ce:54:07:66:
                    51:33:34:20:62:fc:fb:89:37:a9:cd:fc:5e:30:ed:
                    6c:da:b0:6e:b7:56:ed:c1:a4:05:62:e5:31:c1:ff:
                    92:e0:09:ca:ec:6b:c2:9b:60:c5:83:93:c6:01:c1:
                    8d:ca:fb:33:f4:67:e1:b4:de:6a:19:da:98:46:cc:
                    20:ea:7b:e3:38:fe:41:f6:49:8b:93:2b:7b:1b:10:
                    8f:1c:69:80:70:8e:51:b7:ef:b8:ae:ea:57:0a:e5:
                    7c:2b:bd:0f:d7:b8:37:31:e5:48:73:ae:0f:9d:6a:
                    50:66:03:85:f3:fd:9c:39:af:1c:b6:74:1f:25:fa:
                    16:d5:09:67:64:6b:4c:f0:5d:98:c1:a5:a3:c8:84:
                    95:ff:7b:e6:d8:c7:d4:89:6a:e2:34:9f:f0:98:9b:
                    18:bb
                Exponent: 65537 (0x10001)
        X509v3 extensions:
            X509v3 Key Usage: critical
                Digital Signature
            X509v3 Subject Key Identifier: 
                BA:F2:58:29:08:2D:D0:AA:7E:2D:98:30:A3:6F:4E:A1:E1:A7:F7:80
            X509v3 Authority Key Identifier: 
                keyid:DC:C7:5E:94:72:FD:83:79:74:0C:5E:03:2F:6A:DD:36:DC:27:15:EB

            X509v3 Extended Key Usage: 
                TLS Web Client Authentication
            X509v3 CRL Distribution Points: 

                Full Name:
                  URI:http://localhost:8181/sisintca.crl

            Authority Information Access: 
                OCSP - URI:http://localhost:8181/ocsp

    Signature Algorithm: sha1WithRSAEncryption
        b6:db:25:87:b2:6c:6c:30:49:eb:b0:de:de:83:02:94:37:e1:
        82:60:50:50:60:35:3e:3b:db:6f:4c:1e:8b:bd:66:d6:5b:cd:
        88:99:54:75:cf:bb:ae:0f:5d:01:45:1e:85:f6:36:9a:25:03:
        65:c0:d3:be:cb:d9:fa:92:d5:2e:d4:6f:c9:d9:0f:c2:0d:e7:
        ab:69:55:50:8f:48:97:a6:fe:5b:9f:7c:aa:35:d0:70:08:cb:
        df:22:96:19:43:33:0e:12:0a:fe:3d:71:6a:f9:f2:f7:22:06:
        af:9f:71:36:d3:df:24:a0:a9:f3:47:aa:c3:34:eb:f8:fb:fe:
        59:ca:ff:cf:54:6f:1a:5c:72:de:35:2f:da:4d:9a:a8:7d:6a:
        aa:28:a5:11:cb:c8:1e:1f:e8:ec:fc:cc:7c:a9:12:4f:55:40:
        33:fe:7b:25:6b:1a:f8:6e:1a:64:ec:d0:31:4b:35:c4:1f:c6:
        b9:93:70:76:78:99:8c:3c:8b:9b:59:41:cb:cd:02:41:99:41:
        ce:93:c7:63:46:aa:eb:ba:87:cc:58:41:13:a9:12:bd:af:74:
        55:8b:b5:91:c0:da:89:88:9c:84:ad:d1:30:b2:ea:c9:13:8b:
        ef:08:09:30:ce:7a:bf:ba:d5:46:69:52:61:36:9a:25:78:54:
        c2:09:77:95
-----BEGIN CERTIFICATE-----
MIIEUDCCAzigAwIBAgIBAjANBgkqhkiG9w0BAQUFADCBgDELMAkGA1UEBhMCQkUx
FzAVBgNVBAgMDlZsYWFtcy1CcmFiYW50MRAwDgYDVQQKDAdTaWVtZW5zMSgwJgYD
VQQLDB9TaWVtZW5zIElUIFNvbHV0aW9ucyAmIFNlcnZpY2VzMRwwGgYDVQQDDBNT
SVMgSW50ZXJtZWRpYXRlIENBMB4XDTEwMDYwODExMTgyOFoXDTExMDYwODExMTgy
OFowfjELMAkGA1UEBhMCQkUxFzAVBgNVBAgMDlZsYWFtcy1CcmFiYW50MRAwDgYD
VQQKDAdTaWVtZW5zMSgwJgYDVQQLDB9TaWVtZW5zIElUIFNvbHV0aW9ucyAmIFNl
cnZpY2VzMRowGAYDVQQDDBFOSUhJST0yMDAwMDAwMDEwMTCCASIwDQYJKoZIhvcN
AQEBBQADggEPADCCAQoCggEBAJ/X6NA/z1hAmgkrmUAVjui0xxtvAdMQLvTDMxq9
9WXSaKQ0syC4T4cRL68FqhfDuNWDGVaI0ZO++XNMAnMA1igMT1iuOfpuMuFjEI7I
5yp51X9yVyki3BL4LGj+bbqOeoVmakDOVAdmUTM0IGL8+4k3qc38XjDtbNqwbrdW
7cGkBWLlMcH/kuAJyuxrwptgxYOTxgHBjcr7M/Rn4bTeahnamEbMIOp74zj+QfZJ
i5MrexsQjxxpgHCOUbfvuK7qVwrlfCu9D9e4NzHlSHOuD51qUGYDhfP9nDmvHLZ0
HyX6FtUJZ2RrTPBdmMGlo8iElf975tjH1Ilq4jSf8JibGLsCAwEAAaOB1TCB0jAO
BgNVHQ8BAf8EBAMCB4AwHQYDVR0OBBYEFLryWCkILdCqfi2YMKNvTqHhp/eAMB8G
A1UdIwQYMBaAFNzHXpRy/YN5dAxeAy9q3TbcJxXrMBMGA1UdJQQMMAoGCCsGAQUF
BwMCMDMGA1UdHwQsMCowKKAmoCSGImh0dHA6Ly9sb2NhbGhvc3Q6ODE4MS9zaXNp
bnRjYS5jcmwwNgYIKwYBBQUHAQEEKjAoMCYGCCsGAQUFBzABhhpodHRwOi8vbG9j
YWxob3N0OjgxODEvb2NzcDANBgkqhkiG9w0BAQUFAAOCAQEAttslh7JsbDBJ67De
3oMClDfhgmBQUGA1Pjvbb0wei71m1lvNiJlUdc+7rg9dAUUehfY2miUDZcDTvsvZ
+pLVLtRvydkPwg3nq2lVUI9Il6b+W598qjXQcAjL3yKWGUMzDhIK/j1xavny9yIG
r59xNtPfJKCp80eqwzTr+Pv+Wcr/z1RvGlxy3jUv2k2aqH1qqiilEcvIHh/o7PzM
fKkST1VAM/57JWsa+G4aZOzQMUs1xB/GuZNwdniZjDyLm1lBy80CQZlBzpPHY0aq
67qHzFhBE6kSva90VYu1kcDaiYichK3RMLLqyROL7wgJMM56v7rVRmlSYTaaJXhU
wgl3lQ==
-----END CERTIFICATE-----
