Certificate:
    Data:
        Version: 3 (0x2)
        Serial Number: 6 (0x6)
        Signature Algorithm: sha1WithRSAEncryption
        Issuer: C=BE, ST=Vlaams-Brabant, O=Siemens, OU=Siemens IT Solutions & Services, CN=SIS Intermediate CA
        Validity
            Not Before: Jun  9 05:41:50 2010 GMT
            Not After : Jun  7 05:41:50 2017 GMT
        Subject: C=BE, ST=Vlaams-Brabant, O=Siemens, OU=Siemens IT Solutions & Services, CN=NIHII=60000000101
        Subject Public Key Info:
            Public Key Algorithm: rsaEncryption
                Public-Key: (2048 bit)
                Modulus:
                    00:da:23:47:00:73:f9:c9:46:41:70:56:86:4f:14:
                    33:c3:ed:29:e2:78:cf:67:b7:90:a5:8a:c3:db:b2:
                    46:ba:3b:bb:43:4d:a7:97:f6:4b:53:ed:2e:2e:2c:
                    1c:a6:0f:fe:48:d4:5e:c2:07:fc:f7:49:cf:3f:44:
                    c5:cf:d3:e4:71:9b:8d:9b:f7:bf:46:99:89:02:35:
                    f0:5c:b8:da:7b:37:50:c9:e1:93:f5:39:e8:15:a5:
                    06:8f:7d:1d:cc:f5:da:ad:93:4b:a7:9c:5f:b1:b6:
                    76:29:c2:b3:7f:96:8b:a8:78:0b:47:96:54:b9:64:
                    ef:c4:4f:34:e8:02:2a:69:15:4f:75:e6:1b:eb:20:
                    24:fc:61:fb:ab:8c:e0:60:85:00:ae:6c:51:9b:8f:
                    6c:be:15:ec:f3:ba:98:91:bb:f2:c3:f3:83:b1:17:
                    aa:37:0e:fe:8c:33:8b:18:91:a0:eb:05:0d:9d:28:
                    7f:f1:3c:dd:30:fd:57:06:f3:a8:c5:14:2a:fa:54:
                    f6:99:ee:7e:3b:81:12:b3:1d:36:bc:87:16:b4:f5:
                    d2:c6:cf:88:55:c0:c4:46:89:c0:b3:ef:25:ee:5b:
                    e2:8b:df:cd:65:54:25:bd:18:11:44:da:ca:31:8e:
                    9b:ba:95:e3:8f:53:c7:be:83:5c:f0:0d:01:72:c4:
                    ce:19
                Exponent: 65537 (0x10001)
        X509v3 extensions:
            X509v3 Key Usage: critical
                Digital Signature
            X509v3 Subject Key Identifier: 
                C6:40:EA:B2:7A:16:66:2C:52:91:9C:55:31:58:7D:66:D3:B8:1C:FD
            X509v3 Authority Key Identifier: 
                keyid:DC:C7:5E:94:72:FD:83:79:74:0C:5E:03:2F:6A:DD:36:DC:27:15:EB

            X509v3 Extended Key Usage: 
                TLS Web Client Authentication
            X509v3 CRL Distribution Points: 

                Full Name:
                  URI:http://localhost:8181/sisintca.crl

            Authority Information Access: 
                OCSP - URI:http://localhost:8181/ocsp

    Signature Algorithm: sha1WithRSAEncryption
        3c:0e:ea:a1:3d:94:f5:12:b2:2c:82:81:a5:45:43:bf:bc:96:
        78:04:32:3c:ca:59:44:72:2c:4d:41:8b:ea:44:13:25:5e:6f:
        76:76:c6:58:c5:51:1e:01:af:1f:21:90:c9:a2:df:b1:5c:21:
        7b:b7:54:de:b0:8c:ad:5e:01:c4:32:1d:55:2a:ca:a7:72:1b:
        97:73:e1:7d:03:73:d5:89:03:15:6b:8d:8c:f4:fe:ae:d8:85:
        63:cb:8e:8e:40:14:0d:c0:70:9b:59:76:2e:0e:a8:03:3c:b7:
        62:65:74:0c:5e:3a:fb:79:ef:ab:de:1b:27:d1:41:6c:4a:68:
        d3:c7:91:5c:cc:10:5f:68:41:10:1a:3b:ae:71:66:47:05:f2:
        1a:e0:a3:dc:8a:71:75:54:37:18:a2:e4:eb:a0:14:d1:8e:4a:
        88:63:e8:b7:3f:18:69:a1:c3:34:aa:ac:c4:0e:5d:f0:53:13:
        1c:ce:24:c4:6a:7b:e7:67:59:31:9d:75:eb:86:b0:10:98:b7:
        d0:b5:20:a9:d9:85:23:d2:17:da:aa:80:fa:0a:c0:61:9c:92:
        80:01:c9:14:3a:d7:4b:10:1e:f4:10:3c:60:97:ad:b7:37:bd:
        8c:ee:99:c6:6a:1f:60:d5:75:25:79:a2:0c:62:e7:64:eb:4e:
        e0:ee:a5:f8
-----BEGIN CERTIFICATE-----
MIIEUDCCAzigAwIBAgIBBjANBgkqhkiG9w0BAQUFADCBgDELMAkGA1UEBhMCQkUx
FzAVBgNVBAgMDlZsYWFtcy1CcmFiYW50MRAwDgYDVQQKDAdTaWVtZW5zMSgwJgYD
VQQLDB9TaWVtZW5zIElUIFNvbHV0aW9ucyAmIFNlcnZpY2VzMRwwGgYDVQQDDBNT
SVMgSW50ZXJtZWRpYXRlIENBMB4XDTEwMDYwOTA1NDE1MFoXDTE3MDYwNzA1NDE1
MFowfjELMAkGA1UEBhMCQkUxFzAVBgNVBAgMDlZsYWFtcy1CcmFiYW50MRAwDgYD
VQQKDAdTaWVtZW5zMSgwJgYDVQQLDB9TaWVtZW5zIElUIFNvbHV0aW9ucyAmIFNl
cnZpY2VzMRowGAYDVQQDDBFOSUhJST02MDAwMDAwMDEwMTCCASIwDQYJKoZIhvcN
AQEBBQADggEPADCCAQoCggEBANojRwBz+clGQXBWhk8UM8PtKeJ4z2e3kKWKw9uy
Rro7u0NNp5f2S1PtLi4sHKYP/kjUXsIH/PdJzz9Exc/T5HGbjZv3v0aZiQI18Fy4
2ns3UMnhk/U56BWlBo99Hcz12q2TS6ecX7G2dinCs3+Wi6h4C0eWVLlk78RPNOgC
KmkVT3XmG+sgJPxh+6uM4GCFAK5sUZuPbL4V7PO6mJG78sPzg7EXqjcO/owzixiR
oOsFDZ0of/E83TD9VwbzqMUUKvpU9pnufjuBErMdNryHFrT10sbPiFXAxEaJwLPv
Je5b4ovfzWVUJb0YEUTayjGOm7qV449Tx76DXPANAXLEzhkCAwEAAaOB1TCB0jAO
BgNVHQ8BAf8EBAMCB4AwHQYDVR0OBBYEFMZA6rJ6FmYsUpGcVTFYfWbTuBz9MB8G
A1UdIwQYMBaAFNzHXpRy/YN5dAxeAy9q3TbcJxXrMBMGA1UdJQQMMAoGCCsGAQUF
BwMCMDMGA1UdHwQsMCowKKAmoCSGImh0dHA6Ly9sb2NhbGhvc3Q6ODE4MS9zaXNp
bnRjYS5jcmwwNgYIKwYBBQUHAQEEKjAoMCYGCCsGAQUFBzABhhpodHRwOi8vbG9j
YWxob3N0OjgxODEvb2NzcDANBgkqhkiG9w0BAQUFAAOCAQEAPA7qoT2U9RKyLIKB
pUVDv7yWeAQyPMpZRHIsTUGL6kQTJV5vdnbGWMVRHgGvHyGQyaLfsVwhe7dU3rCM
rV4BxDIdVSrKp3Ibl3PhfQNz1YkDFWuNjPT+rtiFY8uOjkAUDcBwm1l2Lg6oAzy3
YmV0DF46+3nvq94bJ9FBbEpo08eRXMwQX2hBEBo7rnFmRwXyGuCj3IpxdVQ3GKLk
66AU0Y5KiGPotz8YaaHDNKqsxA5d8FMTHM4kxGp752dZMZ1164awEJi30LUgqdmF
I9IX2qqA+grAYZySgAHJFDrXSxAe9BA8YJettze9jO6ZxmofYNV1JXmiDGLnZOtO
4O6l+A==
-----END CERTIFICATE-----
