Certificate:
    Data:
        Version: 3 (0x2)
        Serial Number: 1 (0x1)
        Signature Algorithm: sha1WithRSAEncryption
        Issuer: C=BE, ST=Vlaams-Brabant, O=Siemens, OU=Siemens IT Solutions & Services, CN=SIS Intermediate CA invalid Signature
        Validity
            Not Before: Jun  9 07:32:12 2010 GMT
            Not After : Jun  9 07:32:12 2011 GMT
        Subject: C=BE, ST=Vlaams-Brabant, O=Siemens, OU=Siemens IT Solutions & Services, CN=NIHII=08000000101
        Subject Public Key Info:
            Public Key Algorithm: rsaEncryption
                Public-Key: (2048 bit)
                Modulus:
                    00:dd:4e:58:96:b6:41:7f:17:f7:4b:8e:51:ff:fe:
                    7d:c8:f8:67:df:53:10:6a:0a:f3:a3:c7:72:3b:79:
                    f6:19:8a:6c:55:15:a8:85:c2:74:c1:03:2e:1d:cf:
                    25:02:1b:5d:c5:35:aa:77:33:a0:58:eb:16:f6:9f:
                    a6:14:b2:88:6c:34:a6:11:82:4a:f6:7e:0a:f3:67:
                    66:b7:9f:f2:48:f6:f5:54:43:a5:cb:2a:aa:26:85:
                    e9:cd:d2:20:4f:6a:43:cf:bb:2b:38:b2:a0:3a:15:
                    9f:85:93:27:cd:dd:55:1f:7c:04:d4:7c:20:c2:48:
                    38:55:40:8a:94:32:f2:f4:88:6e:fd:99:4e:a1:52:
                    32:b8:04:61:49:7e:20:d4:da:40:a5:c9:fc:b0:00:
                    56:43:2e:81:ea:10:34:19:47:88:29:4d:20:04:ed:
                    09:b3:fa:fc:be:c2:24:70:91:02:6f:d1:52:6d:d2:
                    ec:6f:8b:f8:b5:d1:2e:72:8f:4c:55:5c:f6:55:20:
                    08:72:0d:05:3e:46:c8:f2:ba:3b:1f:4c:7f:ba:cb:
                    6a:7f:73:48:05:3e:4d:af:eb:7a:a9:0d:00:d3:ec:
                    7d:73:b8:1f:a7:8c:aa:ef:ec:a7:d3:d4:e1:e8:d4:
                    b8:ee:11:ad:75:27:f0:9f:31:fa:df:30:84:00:d7:
                    ad:87
                Exponent: 65537 (0x10001)
        X509v3 extensions:
            X509v3 Key Usage: critical
                Digital Signature
            X509v3 Subject Key Identifier: 
                A3:4B:72:E3:3B:85:B1:AA:DF:C2:8E:D1:76:4B:3B:75:09:F1:8C:9B
            X509v3 Authority Key Identifier: 
                keyid:20:A1:B5:9D:2C:D0:74:39:BD:7D:45:7F:7D:E2:CA:ED:51:FE:AF:87

            X509v3 Extended Key Usage: 
                TLS Web Client Authentication
            X509v3 CRL Distribution Points: 

                Full Name:
                  URI:http://localhost:8181/sisintca.crl

            Authority Information Access: 
                OCSP - URI:http://localhost:8181/ocsp

    Signature Algorithm: sha1WithRSAEncryption
        18:0d:fe:43:56:d8:62:ca:8d:a3:56:3a:f9:b8:2c:c6:c4:3d:
        e1:f9:8d:fc:32:40:cd:d9:2f:5c:52:d6:95:6a:85:d4:2f:56:
        0f:5c:08:50:f8:0a:b7:2d:0d:1a:48:b4:03:50:5c:15:9d:11:
        d8:d4:bb:f1:80:fe:e8:8d:25:a7:5b:39:ff:56:44:49:7c:20:
        75:c3:6d:25:ee:83:98:e3:5c:dc:45:35:d6:04:a1:cc:ae:45:
        9d:97:1f:5a:5d:7a:e2:76:fc:b2:76:1e:59:24:6c:82:83:30:
        95:ec:fd:dd:9e:6f:9a:c5:59:29:d8:d7:43:5b:c1:50:05:e2:
        1d:6e:71:c6:65:de:d1:22:90:82:e2:5e:a5:5e:40:42:1b:27:
        1d:09:55:32:8d:a0:65:37:d4:24:00:ff:3f:79:90:3f:8f:03:
        dc:00:0e:d1:03:c8:94:e0:60:8f:46:30:28:45:1b:60:40:f0:
        b4:90:af:fa:3a:39:c9:37:73:eb:33:8f:9e:bc:87:e9:22:6d:
        bd:3c:d9:27:63:dc:f2:f6:4d:24:de:6c:fe:a7:09:09:cf:cb:
        0b:b9:17:99:4b:cd:82:81:60:ed:3d:ba:9a:7d:dc:b7:2f:1f:
        ac:83:10:b8:74:d5:ce:0b:2e:c4:2f:71:30:8c:24:5d:f6:7d:
        e0:2f:73:18
-----BEGIN CERTIFICATE-----
MIIEYjCCA0qgAwIBAgIBATANBgkqhkiG9w0BAQUFADCBkjELMAkGA1UEBhMCQkUx
FzAVBgNVBAgMDlZsYWFtcy1CcmFiYW50MRAwDgYDVQQKDAdTaWVtZW5zMSgwJgYD
VQQLDB9TaWVtZW5zIElUIFNvbHV0aW9ucyAmIFNlcnZpY2VzMS4wLAYDVQQDDCVT
SVMgSW50ZXJtZWRpYXRlIENBIGludmFsaWQgU2lnbmF0dXJlMB4XDTEwMDYwOTA3
MzIxMloXDTExMDYwOTA3MzIxMlowfjELMAkGA1UEBhMCQkUxFzAVBgNVBAgMDlZs
YWFtcy1CcmFiYW50MRAwDgYDVQQKDAdTaWVtZW5zMSgwJgYDVQQLDB9TaWVtZW5z
IElUIFNvbHV0aW9ucyAmIFNlcnZpY2VzMRowGAYDVQQDDBFOSUhJST0wODAwMDAw
MDEwMTCCASIwDQYJKoZIhvcNAQEBBQADggEPADCCAQoCggEBAN1OWJa2QX8X90uO
Uf/+fcj4Z99TEGoK86PHcjt59hmKbFUVqIXCdMEDLh3PJQIbXcU1qnczoFjrFvaf
phSyiGw0phGCSvZ+CvNnZref8kj29VRDpcsqqiaF6c3SIE9qQ8+7KziyoDoVn4WT
J83dVR98BNR8IMJIOFVAipQy8vSIbv2ZTqFSMrgEYUl+INTaQKXJ/LAAVkMugeoQ
NBlHiClNIATtCbP6/L7CJHCRAm/RUm3S7G+L+LXRLnKPTFVc9lUgCHINBT5GyPK6
Ox9Mf7rLan9zSAU+Ta/reqkNANPsfXO4H6eMqu/sp9PU4ejUuO4RrXUn8J8x+t8w
hADXrYcCAwEAAaOB1TCB0jAOBgNVHQ8BAf8EBAMCB4AwHQYDVR0OBBYEFKNLcuM7
hbGq38KO0XZLO3UJ8YybMB8GA1UdIwQYMBaAFCChtZ0s0HQ5vX1Ff33iyu1R/q+H
MBMGA1UdJQQMMAoGCCsGAQUFBwMCMDMGA1UdHwQsMCowKKAmoCSGImh0dHA6Ly9s
b2NhbGhvc3Q6ODE4MS9zaXNpbnRjYS5jcmwwNgYIKwYBBQUHAQEEKjAoMCYGCCsG
AQUFBzABhhpodHRwOi8vbG9jYWxob3N0OjgxODEvb2NzcDANBgkqhkiG9w0BAQUF
AAOCAQEAGA3+Q1bYYsqNo1Y6+bgsxsQ94fmN/DJAzdkvXFLWlWqF1C9WD1wIUPgK
ty0NGki0A1BcFZ0R2NS78YD+6I0lp1s5/1ZESXwgdcNtJe6DmONc3EU11gShzK5F
nZcfWl164nb8snYeWSRsgoMwlez93Z5vmsVZKdjXQ1vBUAXiHW5xxmXe0SKQguJe
pV5AQhsnHQlVMo2gZTfUJAD/P3mQP48D3AAO0QPIlOBgj0YwKEUbYEDwtJCv+jo5
yTdz6zOPnryH6SJtvTzZJ2Pc8vZNJN5s/qcJCc/LC7kXmUvNgoFg7T26mn3cty8f
rIMQuHTVzgsuxC9xMIwkXfZ94C9zGA==
-----END CERTIFICATE-----
