Certificate:
    Data:
        Version: 3 (0x2)
        Serial Number:
            b6:ef:12:de:0f:14:f2:75
        Signature Algorithm: sha1WithRSAEncryption
        Issuer: C=BE, ST=Vlaams-Babant, O=Siemens, OU=Siemens IT Solutions & Services, CN=SIS Untrusted Root CA
        Validity
            Not Before: Jun  8 13:09:03 2010 GMT
            Not After : Jun  7 13:09:03 2015 GMT
        Subject: C=BE, ST=Vlaams-Babant, O=Siemens, OU=Siemens IT Solutions & Services, CN=SIS Intermediate CA of Untrusted Root
        Subject Public Key Info:
            Public Key Algorithm: rsaEncryption
                Public-Key: (2048 bit)
                Modulus:
                    00:92:db:26:23:2a:e6:61:8f:7c:09:40:7b:a8:8c:
                    11:93:65:3b:2d:81:1f:89:75:a5:ba:3a:89:7f:3d:
                    d7:04:49:a3:7b:40:74:03:dc:69:60:f1:b1:53:f2:
                    f9:64:98:30:10:73:4a:3e:30:11:86:f4:01:9b:6a:
                    78:3d:64:45:18:c7:66:1d:e8:a2:a1:8c:68:22:e9:
                    32:d0:c0:d3:0e:a6:5c:9d:6f:f1:5c:af:ea:05:a3:
                    41:79:b6:f3:1a:a3:ec:1d:47:b9:d2:49:8f:d5:11:
                    cf:f2:fb:73:e5:ec:36:88:9d:d4:8c:d8:f7:85:3d:
                    de:5d:8c:65:24:1e:34:a2:1e:82:06:58:e0:1d:e1:
                    78:f4:f0:0f:b5:29:a6:97:a7:d3:42:68:d0:a0:db:
                    5b:10:a7:83:c6:81:ac:5e:35:35:3f:3f:0c:e9:14:
                    b8:db:8d:05:c0:51:8f:95:92:c3:0a:fb:88:bd:ef:
                    05:ba:56:08:82:6b:e1:9b:f4:b4:89:0b:0a:d6:42:
                    23:a9:5f:f4:9a:67:2d:67:d5:d8:48:cb:27:b3:47:
                    53:78:63:3a:ed:2e:63:ec:cb:86:23:67:e6:db:1f:
                    40:9e:dd:65:dd:b1:1e:b0:89:99:3f:fb:6c:86:0e:
                    58:cc:94:b1:68:54:e1:aa:d7:9c:16:de:c2:6e:35:
                    0c:17
                Exponent: 65537 (0x10001)
        X509v3 extensions:
            X509v3 Subject Key Identifier: 
                DD:22:42:CA:DF:11:FA:5A:08:27:F9:F0:94:7B:61:94:74:7D:C7:8B
            X509v3 Authority Key Identifier: 
                keyid:41:3A:6D:5D:72:79:30:EE:EF:96:16:8A:22:90:C8:04:19:4F:DD:8B

            X509v3 Basic Constraints: critical
                CA:TRUE
            X509v3 Key Usage: critical
                Certificate Sign, CRL Sign
            X509v3 CRL Distribution Points: 

                Full Name:
                  URI:http://localhost:8181/sisca.crl

            Authority Information Access: 
                OCSP - URI:http://localhost:8181/ocsp

    Signature Algorithm: sha1WithRSAEncryption
        b0:72:a0:6a:64:a6:f5:0e:0f:27:9a:93:44:e5:8f:5b:f2:07:
        22:1d:85:de:76:b7:56:15:ab:9a:7a:67:a9:d1:b1:2f:75:7a:
        ca:df:58:4f:ab:3c:33:14:ed:ed:71:67:94:11:89:38:eb:98:
        71:ef:b4:91:ce:61:f0:08:9c:22:0f:e5:2a:4b:c0:b7:2d:a3:
        cd:60:a2:bd:0f:17:88:13:a6:52:97:ad:16:d2:70:41:cb:35:
        08:84:41:f2:0e:59:bb:95:60:f2:9b:78:86:d2:16:55:01:a7:
        d6:a7:7e:d9:52:74:dc:0f:72:b8:d9:49:06:1c:2d:5c:67:c3:
        2b:ed:9a:ed:b7:0e:08:1b:4e:21:7d:21:9d:d1:d9:ea:44:38:
        a5:57:7c:a2:a1:ef:e5:33:8f:cf:21:02:fb:8f:bd:f6:25:33:
        2a:36:4e:ae:db:1a:0a:12:91:8b:70:6a:c5:52:a0:6a:81:97:
        b6:36:43:37:eb:b9:7f:68:e4:9f:8b:5c:4a:ad:27:57:67:13:
        30:c4:44:b9:40:e7:e6:53:84:6a:5b:09:e0:06:d6:6f:e7:b7:
        ab:d0:57:e1:b1:bb:cb:cf:44:98:14:d6:00:be:64:cb:ea:3e:
        e6:92:aa:b8:a6:cc:9e:53:81:68:1a:88:af:02:7d:86:08:45:
        15:12:04:74
-----BEGIN CERTIFICATE-----
MIIEZjCCA06gAwIBAgIJALbvEt4PFPJ1MA0GCSqGSIb3DQEBBQUAMIGBMQswCQYD
VQQGEwJCRTEWMBQGA1UECAwNVmxhYW1zLUJhYmFudDEQMA4GA1UECgwHU2llbWVu
czEoMCYGA1UECwwfU2llbWVucyBJVCBTb2x1dGlvbnMgJiBTZXJ2aWNlczEeMBwG
A1UEAwwVU0lTIFVudHJ1c3RlZCBSb290IENBMB4XDTEwMDYwODEzMDkwM1oXDTE1
MDYwNzEzMDkwM1owgZExCzAJBgNVBAYTAkJFMRYwFAYDVQQIDA1WbGFhbXMtQmFi
YW50MRAwDgYDVQQKDAdTaWVtZW5zMSgwJgYDVQQLDB9TaWVtZW5zIElUIFNvbHV0
aW9ucyAmIFNlcnZpY2VzMS4wLAYDVQQDDCVTSVMgSW50ZXJtZWRpYXRlIENBIG9m
IFVudHJ1c3RlZCBSb290MIIBIjANBgkqhkiG9w0BAQEFAAOCAQ8AMIIBCgKCAQEA
ktsmIyrmYY98CUB7qIwRk2U7LYEfiXWlujqJfz3XBEmje0B0A9xpYPGxU/L5ZJgw
EHNKPjARhvQBm2p4PWRFGMdmHeiioYxoIuky0MDTDqZcnW/xXK/qBaNBebbzGqPs
HUe50kmP1RHP8vtz5ew2iJ3UjNj3hT3eXYxlJB40oh6CBljgHeF49PAPtSmml6fT
QmjQoNtbEKeDxoGsXjU1Pz8M6RS4240FwFGPlZLDCvuIve8FulYIgmvhm/S0iQsK
1kIjqV/0mmctZ9XYSMsns0dTeGM67S5j7MuGI2fm2x9Ant1l3bEesImZP/tshg5Y
zJSxaFThqtecFt7CbjUMFwIDAQABo4HOMIHLMB0GA1UdDgQWBBTdIkLK3xH6Wggn
+fCUe2GUdH3HizAfBgNVHSMEGDAWgBRBOm1dcnkw7u+WFooikMgEGU/dizAPBgNV
HRMBAf8EBTADAQH/MA4GA1UdDwEB/wQEAwIBBjAwBgNVHR8EKTAnMCWgI6Ahhh9o
dHRwOi8vbG9jYWxob3N0OjgxODEvc2lzY2EuY3JsMDYGCCsGAQUFBwEBBCowKDAm
BggrBgEFBQcwAYYaaHR0cDovL2xvY2FsaG9zdDo4MTgxL29jc3AwDQYJKoZIhvcN
AQEFBQADggEBALByoGpkpvUODyeak0Tlj1vyByIdhd52t1YVq5p6Z6nRsS91esrf
WE+rPDMU7e1xZ5QRiTjrmHHvtJHOYfAInCIP5SpLwLcto81gor0PF4gTplKXrRbS
cEHLNQiEQfIOWbuVYPKbeIbSFlUBp9anftlSdNwPcrjZSQYcLVxnwyvtmu23Dggb
TiF9IZ3R2epEOKVXfKKh7+Uzj88hAvuPvfYlMyo2Tq7bGgoSkYtwasVSoGqBl7Y2
QzfruX9o5J+LXEqtJ1dnEzDERLlA5+ZThGpbCeAG1m/nt6vQV+Gxu8vPRJgU1gC+
ZMvqPuaSqrimzJ5TgWgaiK8CfYYIRRUSBHQ=
-----END CERTIFICATE-----
