Certificate:
    Data:
        Version: 3 (0x2)
        Serial Number: 1 (0x1)
        Signature Algorithm: sha1WithRSAEncryption
        Issuer: C=BE, ST=Vlaams-Babant, O=Siemens, OU=Siemens IT Solutions & Services, CN=SIS Intermediate CA of Untrusted Root
        Validity
            Not Before: Jun  8 13:13:05 2010 GMT
            Not After : Jun  8 13:13:05 2011 GMT
        Subject: C=BE, ST=Vlaams-Babant, O=Siemens, OU=Siemens IT Solutions & Services, CN=NIHII=40000000101
        Subject Public Key Info:
            Public Key Algorithm: rsaEncryption
                Public-Key: (2024 bit)
                Modulus:
                    00:a3:97:f3:00:9f:66:7e:4f:24:51:83:6b:9f:0b:
                    ef:00:9e:94:27:3c:4b:b5:a1:54:6c:44:45:b4:7c:
                    75:50:c3:ed:79:50:a8:2a:ab:13:e0:87:6a:76:e3:
                    75:cf:17:b2:1b:44:9a:db:19:e2:ee:35:dc:f3:46:
                    2d:92:d2:8f:18:dd:b6:5f:28:71:7a:1e:df:04:5a:
                    c6:62:b1:58:a7:24:6f:b9:bf:6e:65:88:73:b1:be:
                    8d:13:8a:43:78:e6:55:86:23:b0:ea:7c:fa:ec:c1:
                    a2:b9:90:22:6a:9e:bf:7c:36:38:b3:6b:d7:7c:90:
                    e5:a3:09:04:99:d3:7f:e2:25:30:d8:4b:ab:18:9c:
                    5b:5c:b2:ba:46:a5:d3:28:6f:06:9b:60:0c:83:09:
                    d9:2c:69:98:85:41:f8:68:f5:c7:27:db:f9:28:a2:
                    96:3b:5b:b2:02:a7:0d:4d:8e:b1:32:c0:d5:6c:98:
                    44:63:f1:8b:36:01:f5:0c:86:74:04:a4:b4:b5:2f:
                    8b:6a:cd:74:63:11:76:1d:3a:a1:6f:9e:be:07:76:
                    77:fd:ec:a4:b8:00:2d:f6:9e:42:b2:74:ac:f2:35:
                    e6:57:32:12:ce:6f:bd:fd:3a:24:f0:86:3b:e7:4e:
                    8a:44:a2:b0:22:57:98:63:d6:59:09:3c:b9:89
                Exponent: 65537 (0x10001)
        X509v3 extensions:
            X509v3 Key Usage: critical
                Digital Signature
            X509v3 Subject Key Identifier: 
                E7:99:1E:1F:AF:2C:BE:AD:D7:98:57:62:6E:04:59:9D:A7:CE:26:57
            X509v3 Authority Key Identifier: 
                keyid:DD:22:42:CA:DF:11:FA:5A:08:27:F9:F0:94:7B:61:94:74:7D:C7:8B

            X509v3 Extended Key Usage: 
                TLS Web Client Authentication
            X509v3 CRL Distribution Points: 

                Full Name:
                  URI:http://localhost:8181/sisintca.crl

            Authority Information Access: 
                OCSP - URI:http://localhost:8181/ocsp

    Signature Algorithm: sha1WithRSAEncryption
        7f:bd:12:d3:3c:f9:f9:06:a0:be:d2:a4:d9:04:a3:a2:20:e7:
        3d:6c:4d:77:bb:cf:a2:25:0d:90:1f:c5:b8:f8:e7:05:8b:1d:
        51:fc:44:ab:51:5e:23:c2:d2:92:c0:38:d2:62:a6:1d:2a:0e:
        09:01:58:60:b2:f1:3a:80:61:71:53:9c:58:51:f4:77:40:e1:
        6f:61:b9:95:e8:76:b6:95:78:a5:31:bd:38:27:08:f4:b5:ae:
        88:75:c6:9f:82:ec:33:13:8f:59:b2:3d:7a:ce:e1:3b:1f:7f:
        08:79:31:1f:4b:df:0e:e0:33:b8:23:19:40:7e:4a:9a:7f:8b:
        1c:15:aa:dd:ac:14:16:80:2a:db:26:20:b8:08:cb:ce:ec:a7:
        e6:2f:47:14:29:8a:25:0a:f6:e9:ec:1c:17:b5:c6:b3:08:5e:
        0b:fc:2a:62:31:33:6a:54:5b:76:e2:4c:4a:35:31:a5:80:36:
        e6:95:6e:09:1c:4d:ea:13:38:60:ac:a0:ad:a4:bd:5f:b9:13:
        af:4b:9a:45:2d:6c:a0:3c:11:11:6a:32:c1:96:ee:cf:31:71:
        be:11:9e:91:50:ef:5b:ae:85:c1:f9:49:5c:85:8a:11:91:35:
        e7:86:0d:bb:4c:51:ec:e9:fa:33:75:49:fb:e0:1a:f0:b6:29:
        fb:98:e7:45
-----BEGIN CERTIFICATE-----
MIIEXDCCA0SgAwIBAgIBATANBgkqhkiG9w0BAQUFADCBkTELMAkGA1UEBhMCQkUx
FjAUBgNVBAgMDVZsYWFtcy1CYWJhbnQxEDAOBgNVBAoMB1NpZW1lbnMxKDAmBgNV
BAsMH1NpZW1lbnMgSVQgU29sdXRpb25zICYgU2VydmljZXMxLjAsBgNVBAMMJVNJ
UyBJbnRlcm1lZGlhdGUgQ0Egb2YgVW50cnVzdGVkIFJvb3QwHhcNMTAwNjA4MTMx
MzA1WhcNMTEwNjA4MTMxMzA1WjB9MQswCQYDVQQGEwJCRTEWMBQGA1UECAwNVmxh
YW1zLUJhYmFudDEQMA4GA1UECgwHU2llbWVuczEoMCYGA1UECwwfU2llbWVucyBJ
VCBTb2x1dGlvbnMgJiBTZXJ2aWNlczEaMBgGA1UEAwwRTklISUk9NDAwMDAwMDAx
MDEwggEeMA0GCSqGSIb3DQEBAQUAA4IBCwAwggEGAoH+AKOX8wCfZn5PJFGDa58L
7wCelCc8S7WhVGxERbR8dVDD7XlQqCqrE+CHanbjdc8XshtEmtsZ4u413PNGLZLS
jxjdtl8ocXoe3wRaxmKxWKckb7m/bmWIc7G+jROKQ3jmVYYjsOp8+uzBormQImqe
v3w2OLNr13yQ5aMJBJnTf+IlMNhLqxicW1yyukal0yhvBptgDIMJ2SxpmIVB+Gj1
xyfb+SiiljtbsgKnDU2OsTLA1WyYRGPxizYB9QyGdASktLUvi2rNdGMRdh06oW+e
vgd2d/3spLgALfaeQrJ0rPI15lcyEs5vvf06JPCGO+dOikSisCJXmGPWWQk8uYkC
AwEAAaOB1TCB0jAOBgNVHQ8BAf8EBAMCB4AwHQYDVR0OBBYEFOeZHh+vLL6t15hX
Ym4EWZ2nziZXMB8GA1UdIwQYMBaAFN0iQsrfEfpaCCf58JR7YZR0fceLMBMGA1Ud
JQQMMAoGCCsGAQUFBwMCMDMGA1UdHwQsMCowKKAmoCSGImh0dHA6Ly9sb2NhbGhv
c3Q6ODE4MS9zaXNpbnRjYS5jcmwwNgYIKwYBBQUHAQEEKjAoMCYGCCsGAQUFBzAB
hhpodHRwOi8vbG9jYWxob3N0OjgxODEvb2NzcDANBgkqhkiG9w0BAQUFAAOCAQEA
f70S0zz5+QagvtKk2QSjoiDnPWxNd7vPoiUNkB/FuPjnBYsdUfxEq1FeI8LSksA4
0mKmHSoOCQFYYLLxOoBhcVOcWFH0d0Dhb2G5leh2tpV4pTG9OCcI9LWuiHXGn4Ls
MxOPWbI9es7hOx9/CHkxH0vfDuAzuCMZQH5Kmn+LHBWq3awUFoAq2yYguAjLzuyn
5i9HFCmKJQr26ewcF7XGswheC/wqYjEzalRbduJMSjUxpYA25pVuCRxN6hM4YKyg
raS9X7kTr0uaRS1soDwREWoywZbuzzFxvhGekVDvW66FwflJXIWKEZE154YNu0xR
7On6M3VJ++Aa8LYp+5jnRQ==
-----END CERTIFICATE-----
