Certificate:
    Data:
        Version: 3 (0x2)
        Serial Number:
            86:b8:b3:82:4e:b9:6c:51
        Signature Algorithm: sha1WithRSAEncryption
        Issuer: C=BE, ST=Vlaams-Brabant, O=Siemens, OU=Siemens IT Solutions & Services, CN=SIS Root CA
        Validity
            Not Before: Jun  9 07:13:13 2010 GMT
            Not After : Jun  8 07:13:13 2015 GMT
        Subject: C=BE, ST=Vlaams-Brabant, O=Siemens, OU=Siemens IT Solutions & Services, CN=SIS Intermediate CA with inval KeyUsage
        Subject Public Key Info:
            Public Key Algorithm: rsaEncryption
                Public-Key: (2048 bit)
                Modulus:
                    00:a4:28:24:ed:39:d7:00:6e:cb:00:54:5b:ea:83:
                    21:26:ea:66:e2:f4:83:7d:e6:02:cc:12:13:e4:88:
                    07:86:a6:f7:41:1c:ed:bb:da:dc:e0:1c:d8:6d:f5:
                    fa:92:ef:ab:e6:77:56:98:8b:5d:0c:f3:cb:53:54:
                    10:d6:39:4d:d8:ee:85:a0:04:b3:fe:63:81:75:57:
                    6a:2e:03:bd:c4:d2:ea:3b:d3:c3:62:4f:50:8d:4e:
                    01:39:b9:1e:cd:12:e4:7c:f2:f5:9c:5c:91:87:78:
                    b8:67:d7:64:10:52:f1:66:37:1c:e6:6f:6f:8e:5a:
                    4c:3e:35:27:57:ec:f2:fb:32:1d:75:de:d6:96:bf:
                    3a:92:e7:91:f3:17:7d:b6:39:4e:e0:10:b5:87:7c:
                    27:1a:00:f6:7f:dc:93:24:aa:a0:14:d3:85:83:05:
                    0f:2f:0a:94:98:8b:55:88:1c:85:8d:85:fd:b3:4f:
                    4a:84:40:44:ac:20:39:3e:4a:ad:90:1f:87:7b:00:
                    10:43:b7:32:cb:84:cc:7c:7b:b1:8b:1e:9c:e9:60:
                    3f:9d:e5:08:97:37:a6:fc:fa:dc:40:c2:1f:97:29:
                    7e:fa:3f:7c:5d:62:f2:63:04:64:cb:55:fb:9e:68:
                    85:cc:b0:bb:52:79:0e:b2:a6:c0:73:52:08:c9:1a:
                    42:89
                Exponent: 65537 (0x10001)
        X509v3 extensions:
            X509v3 Subject Key Identifier: 
                AB:A5:75:CD:39:FB:3E:EF:14:DB:C0:A9:E1:8A:A6:02:D1:C2:30:56
            X509v3 Authority Key Identifier: 
                keyid:CE:C5:78:1F:46:68:83:8E:04:0B:06:2C:81:BB:59:E1:76:78:83:9B

            X509v3 Basic Constraints: critical
                CA:TRUE
            X509v3 Key Usage: critical
                Digital Signature, Non Repudiation
            X509v3 CRL Distribution Points: 

                Full Name:
                  URI:http://localhost:8181/sisca.crl

            Authority Information Access: 
                OCSP - URI:http://localhost:8181/ocsp

    Signature Algorithm: sha1WithRSAEncryption
        02:c7:c6:f1:18:f5:4c:1c:2a:76:d9:ee:26:d6:4d:6d:98:de:
        6d:f8:53:88:0b:34:78:96:c3:97:56:80:5b:35:f0:e3:4e:fa:
        95:bb:5a:e6:65:d3:81:bd:b0:59:07:21:52:6d:7f:81:6f:f9:
        fa:2b:a9:41:6e:2b:e5:54:16:29:53:be:ba:80:2a:74:0f:05:
        a3:e7:9b:fe:11:86:be:4e:15:3e:7b:7b:19:97:8b:9e:81:22:
        9a:6b:e3:b1:39:0d:08:f4:74:a9:65:d8:26:30:d7:6c:84:35:
        f2:04:aa:18:06:47:75:b0:88:11:4f:12:bb:c1:4f:91:3a:c4:
        79:12:30:57:a1:89:9d:6a:c3:4c:20:e4:21:e0:47:b9:90:72:
        9e:a9:65:47:33:34:95:c4:f8:dd:d0:85:ba:f0:f0:77:ab:0d:
        59:07:c9:b2:9f:9b:89:ff:ff:c4:3f:73:91:1d:1d:86:4f:b0:
        19:50:df:87:56:a4:4c:c9:b5:d8:29:e2:4f:e2:6c:16:3d:5d:
        28:e1:c2:78:f5:48:11:36:dc:62:83:c1:69:a3:cb:cb:a2:ff:
        28:33:3a:8c:26:e4:8c:ab:c8:df:ab:2b:fb:5c:7d:fb:36:b0:
        c8:38:34:86:35:8d:df:7c:80:7d:35:82:74:b1:0f:f3:7c:e3:
        94:85:58:39
-----BEGIN CERTIFICATE-----
MIIEXzCCA0egAwIBAgIJAIa4s4JOuWxRMA0GCSqGSIb3DQEBBQUAMHgxCzAJBgNV
BAYTAkJFMRcwFQYDVQQIDA5WbGFhbXMtQnJhYmFudDEQMA4GA1UECgwHU2llbWVu
czEoMCYGA1UECwwfU2llbWVucyBJVCBTb2x1dGlvbnMgJiBTZXJ2aWNlczEUMBIG
A1UEAwwLU0lTIFJvb3QgQ0EwHhcNMTAwNjA5MDcxMzEzWhcNMTUwNjA4MDcxMzEz
WjCBlDELMAkGA1UEBhMCQkUxFzAVBgNVBAgMDlZsYWFtcy1CcmFiYW50MRAwDgYD
VQQKDAdTaWVtZW5zMSgwJgYDVQQLDB9TaWVtZW5zIElUIFNvbHV0aW9ucyAmIFNl
cnZpY2VzMTAwLgYDVQQDDCdTSVMgSW50ZXJtZWRpYXRlIENBIHdpdGggaW52YWwg
S2V5VXNhZ2UwggEiMA0GCSqGSIb3DQEBAQUAA4IBDwAwggEKAoIBAQCkKCTtOdcA
bssAVFvqgyEm6mbi9IN95gLMEhPkiAeGpvdBHO272tzgHNht9fqS76vmd1aYi10M
88tTVBDWOU3Y7oWgBLP+Y4F1V2ouA73E0uo708NiT1CNTgE5uR7NEuR88vWcXJGH
eLhn12QQUvFmNxzmb2+OWkw+NSdX7PL7Mh113taWvzqS55HzF322OU7gELWHfCca
APZ/3JMkqqAU04WDBQ8vCpSYi1WIHIWNhf2zT0qEQESsIDk+Sq2QH4d7ABBDtzLL
hMx8e7GLHpzpYD+d5QiXN6b8+txAwh+XKX76P3xdYvJjBGTLVfueaIXMsLtSeQ6y
psBzUgjJGkKJAgMBAAGjgc4wgcswHQYDVR0OBBYEFKuldc05+z7vFNvAqeGKpgLR
wjBWMB8GA1UdIwQYMBaAFM7FeB9GaIOOBAsGLIG7WeF2eIObMA8GA1UdEwEB/wQF
MAMBAf8wDgYDVR0PAQH/BAQDAgbAMDAGA1UdHwQpMCcwJaAjoCGGH2h0dHA6Ly9s
b2NhbGhvc3Q6ODE4MS9zaXNjYS5jcmwwNgYIKwYBBQUHAQEEKjAoMCYGCCsGAQUF
BzABhhpodHRwOi8vbG9jYWxob3N0OjgxODEvb2NzcDANBgkqhkiG9w0BAQUFAAOC
AQEAAsfG8Rj1TBwqdtnuJtZNbZjebfhTiAs0eJbDl1aAWzXw4076lbta5mXTgb2w
WQchUm1/gW/5+iupQW4r5VQWKVO+uoAqdA8Fo+eb/hGGvk4VPnt7GZeLnoEimmvj
sTkNCPR0qWXYJjDXbIQ18gSqGAZHdbCIEU8Su8FPkTrEeRIwV6GJnWrDTCDkIeBH
uZBynqllRzM0lcT43dCFuvDwd6sNWQfJsp+bif//xD9zkR0dhk+wGVDfh1akTMm1
2CniT+JsFj1dKOHCePVIETbcYoPBaaPLy6L/KDM6jCbkjKvI36sr+1x9+zawyDg0
hjWN33yAfTWCdLEP83zjlIVYOQ==
-----END CERTIFICATE-----
