Certificate:
    Data:
        Version: 3 (0x2)
        Serial Number: 1 (0x1)
        Signature Algorithm: sha1WithRSAEncryption
        Issuer: C=BE, ST=Vlaams-Brabant, O=Siemens, OU=Siemens IT Solutions & Services, CN=SIS Intermediate CA with inval KeyUsage
        Validity
            Not Before: Jun  9 07:15:34 2010 GMT
            Not After : Jun  9 07:15:34 2011 GMT
        Subject: C=BE, ST=Vlaams-Brabant, O=Siemens, OU=Siemens IT Solutions & Services, CN=NIHII=04000000101
        Subject Public Key Info:
            Public Key Algorithm: rsaEncryption
                Public-Key: (2048 bit)
                Modulus:
                    00:df:07:f7:61:98:6e:e9:32:e3:ce:e8:99:ee:b7:
                    a3:65:6b:7a:a4:2e:be:c6:dd:53:7a:f4:8e:77:b2:
                    65:7a:bc:d2:6f:6c:22:1a:3c:68:b1:d0:a4:3e:42:
                    f1:e6:07:13:b0:ec:10:3d:8e:17:b3:53:b5:50:07:
                    e2:3b:1d:62:81:cd:c5:55:6b:71:03:ba:5d:de:b9:
                    23:e4:08:3a:e7:be:56:fc:9c:16:7c:ae:b6:18:2b:
                    a9:14:af:fc:6e:c2:7c:dc:fc:73:d8:88:7c:ae:1a:
                    8f:87:51:1b:a4:f1:b3:90:2a:32:75:f0:3d:85:ef:
                    0e:fa:28:0f:f8:05:98:5d:50:0b:e8:b8:11:8c:90:
                    b3:cf:c0:bc:31:a4:51:aa:d6:95:2f:41:7a:ac:ce:
                    6c:24:33:f8:5e:9d:6d:49:4f:7f:40:fd:fe:7e:63:
                    7a:68:7e:f2:b1:de:d1:0d:95:63:4f:06:d0:2a:48:
                    d0:14:6a:58:c2:d8:8c:62:19:9c:3e:be:c7:62:0c:
                    aa:f2:e4:b3:76:00:10:f4:45:5f:a6:1e:8e:e8:52:
                    b2:58:fe:9c:1e:9c:17:98:5e:a8:96:bd:68:8b:2e:
                    c5:78:4b:70:7e:fb:3f:21:df:27:ad:93:76:0e:a3:
                    c5:dc:b9:91:14:55:44:be:30:3c:db:99:06:12:c0:
                    40:4f
                Exponent: 65537 (0x10001)
        X509v3 extensions:
            X509v3 Key Usage: critical
                Digital Signature
            X509v3 Subject Key Identifier: 
                09:38:E3:FF:15:CF:D3:1F:82:F2:01:99:E6:2A:1F:19:52:AD:7A:B1
            X509v3 Authority Key Identifier: 
                keyid:AB:A5:75:CD:39:FB:3E:EF:14:DB:C0:A9:E1:8A:A6:02:D1:C2:30:56

            X509v3 Extended Key Usage: 
                TLS Web Client Authentication
            X509v3 CRL Distribution Points: 

                Full Name:
                  URI:http://localhost:8181/sisintca.crl

            Authority Information Access: 
                OCSP - URI:http://localhost:8181/ocsp

    Signature Algorithm: sha1WithRSAEncryption
        7c:31:c4:24:1b:f4:b3:f2:f6:1c:0a:fb:4e:3e:d9:b0:dd:7e:
        17:1e:82:d0:92:6e:e3:b2:8b:6d:67:9d:28:12:55:4d:62:b4:
        ec:13:b0:09:cf:e3:ff:e1:0c:6a:67:c7:0b:b9:30:69:c1:b7:
        a0:15:50:b6:27:05:bb:44:70:83:f1:14:77:72:62:40:84:2e:
        f4:8c:45:d6:92:5e:f6:ca:78:95:db:50:c4:45:90:53:f5:21:
        dc:5a:7a:a5:2d:af:16:30:fa:b6:71:f9:27:ce:80:94:98:75:
        73:c8:d8:77:35:38:39:d8:3b:a9:1a:84:01:6d:26:71:b0:d8:
        99:d4:35:5b:de:70:f4:c7:f4:b0:d7:0e:ef:dc:bb:3a:3e:19:
        0f:18:65:4e:3d:a5:2c:17:fe:f7:97:e3:e2:77:da:4c:94:b8:
        65:a5:69:b0:f2:e3:11:f2:72:fa:aa:31:d8:7b:44:ea:77:11:
        d9:34:42:9b:0f:e7:6a:81:66:9d:78:f9:38:e1:1e:b5:65:cf:
        44:98:33:da:fb:b3:10:6d:4d:09:8e:cb:e7:fb:4a:74:16:1c:
        0c:63:79:8f:48:b3:2c:b6:94:64:00:a8:91:1b:5b:df:88:86:
        eb:c4:c2:b3:b7:37:57:b5:a7:69:f9:a3:49:da:6a:a7:1b:e2:
        e6:86:07:4c
-----BEGIN CERTIFICATE-----
MIIEZDCCA0ygAwIBAgIBATANBgkqhkiG9w0BAQUFADCBlDELMAkGA1UEBhMCQkUx
FzAVBgNVBAgMDlZsYWFtcy1CcmFiYW50MRAwDgYDVQQKDAdTaWVtZW5zMSgwJgYD
VQQLDB9TaWVtZW5zIElUIFNvbHV0aW9ucyAmIFNlcnZpY2VzMTAwLgYDVQQDDCdT
SVMgSW50ZXJtZWRpYXRlIENBIHdpdGggaW52YWwgS2V5VXNhZ2UwHhcNMTAwNjA5
MDcxNTM0WhcNMTEwNjA5MDcxNTM0WjB+MQswCQYDVQQGEwJCRTEXMBUGA1UECAwO
VmxhYW1zLUJyYWJhbnQxEDAOBgNVBAoMB1NpZW1lbnMxKDAmBgNVBAsMH1NpZW1l
bnMgSVQgU29sdXRpb25zICYgU2VydmljZXMxGjAYBgNVBAMMEU5JSElJPTA0MDAw
MDAwMTAxMIIBIjANBgkqhkiG9w0BAQEFAAOCAQ8AMIIBCgKCAQEA3wf3YZhu6TLj
zuiZ7rejZWt6pC6+xt1TevSOd7JlerzSb2wiGjxosdCkPkLx5gcTsOwQPY4Xs1O1
UAfiOx1igc3FVWtxA7pd3rkj5Ag6575W/JwWfK62GCupFK/8bsJ83Pxz2Ih8rhqP
h1EbpPGzkCoydfA9he8O+igP+AWYXVAL6LgRjJCzz8C8MaRRqtaVL0F6rM5sJDP4
Xp1tSU9/QP3+fmN6aH7ysd7RDZVjTwbQKkjQFGpYwtiMYhmcPr7HYgyq8uSzdgAQ
9EVfph6O6FKyWP6cHpwXmF6olr1oiy7FeEtwfvs/Id8nrZN2DqPF3LmRFFVEvjA8
25kGEsBATwIDAQABo4HVMIHSMA4GA1UdDwEB/wQEAwIHgDAdBgNVHQ4EFgQUCTjj
/xXP0x+C8gGZ5iofGVKterEwHwYDVR0jBBgwFoAUq6V1zTn7Pu8U28Cp4YqmAtHC
MFYwEwYDVR0lBAwwCgYIKwYBBQUHAwIwMwYDVR0fBCwwKjAooCagJIYiaHR0cDov
L2xvY2FsaG9zdDo4MTgxL3Npc2ludGNhLmNybDA2BggrBgEFBQcBAQQqMCgwJgYI
KwYBBQUHMAGGGmh0dHA6Ly9sb2NhbGhvc3Q6ODE4MS9vY3NwMA0GCSqGSIb3DQEB
BQUAA4IBAQB8McQkG/Sz8vYcCvtOPtmw3X4XHoLQkm7jsottZ50oElVNYrTsE7AJ
z+P/4QxqZ8cLuTBpwbegFVC2JwW7RHCD8RR3cmJAhC70jEXWkl72yniV21DERZBT
9SHcWnqlLa8WMPq2cfknzoCUmHVzyNh3NTg52DupGoQBbSZxsNiZ1DVb3nD0x/Sw
1w7v3Ls6PhkPGGVOPaUsF/73l+Pid9pMlLhlpWmw8uMR8nL6qjHYe0TqdxHZNEKb
D+dqgWadePk44R61Zc9EmDPa+7MQbU0Jjsvn+0p0FhwMY3mPSLMstpRkAKiRG1vf
iIbrxMKztzdXtadp+aNJ2mqnG+LmhgdM
-----END CERTIFICATE-----
