Certificate:
    Data:
        Version: 3 (0x2)
        Serial Number:
            86:b8:b3:82:4e:b9:6c:57
        Signature Algorithm: sha1WithRSAEncryption
        Issuer: C=BE, ST=Vlaams-Brabant, O=Siemens, OU=Siemens IT Solutions & Services, CN=SIS Root CA
        Validity
            Not Before: Jun 10 10:57:46 2010 GMT
            Not After : Jun  9 10:57:46 2015 GMT
        Subject: C=BE, ST=Vlaams-Brabant, O=Siemens, OU=Siemens IT Solutions & Services, CN=SIS Revoked Intermediate CA
        Subject Public Key Info:
            Public Key Algorithm: rsaEncryption
                Public-Key: (2048 bit)
                Modulus:
                    00:d3:61:ec:40:56:cb:ab:97:85:b7:18:0d:ad:4d:
                    02:30:92:37:2f:58:9d:64:15:96:6e:9a:f0:2b:97:
                    38:39:d6:72:b0:19:c6:1c:f2:f7:73:95:70:fd:8e:
                    0c:aa:46:29:b2:3b:1f:19:09:8f:96:d2:74:4d:a9:
                    13:d1:61:73:bc:f0:37:4d:ac:9c:0f:a2:1b:e5:df:
                    56:8f:dc:bb:22:6d:1a:31:ca:09:28:3b:e4:5d:8e:
                    56:a4:02:0f:30:f3:f8:e4:e9:b7:25:e8:b1:f8:a6:
                    ac:c6:4d:62:01:4e:6b:04:85:e1:ed:30:57:03:bf:
                    d9:ec:6c:f1:3b:92:49:d8:4f:dd:0a:9a:24:92:84:
                    c3:9e:b5:71:be:61:5b:8e:96:24:fb:c9:b1:21:8d:
                    64:b0:99:0e:09:a2:af:85:db:52:f1:d1:b9:3e:4c:
                    64:48:df:a9:bc:89:82:cf:d9:aa:8e:06:37:e5:4f:
                    4f:85:bb:31:3a:b2:d5:89:4c:58:ab:93:94:79:8d:
                    1d:9b:14:6f:b4:b1:f9:3d:bd:ff:af:7c:be:77:ac:
                    b2:a1:20:b7:7b:ab:c1:00:e3:74:7a:54:9e:e5:46:
                    a2:d2:50:cb:f0:18:84:eb:0f:1f:26:b1:12:e1:2b:
                    6a:9e:dc:77:1b:6b:49:73:52:53:3d:54:dd:3f:92:
                    b0:89
                Exponent: 65537 (0x10001)
        X509v3 extensions:
            X509v3 Subject Key Identifier: 
                F5:6A:97:BA:97:7C:AB:F3:80:88:FC:08:AA:10:DA:95:BB:27:3A:94
            X509v3 Authority Key Identifier: 
                keyid:CE:C5:78:1F:46:68:83:8E:04:0B:06:2C:81:BB:59:E1:76:78:83:9B

            X509v3 Basic Constraints: critical
                CA:TRUE
            X509v3 Key Usage: critical
                Certificate Sign, CRL Sign
            X509v3 CRL Distribution Points: 

                Full Name:
                  URI:http://localhost:8181/sisca.crl

            Authority Information Access: 
                OCSP - URI:http://localhost:8181/ocsp

    Signature Algorithm: sha1WithRSAEncryption
        6f:f5:30:38:e4:a3:81:c6:64:9c:f3:b0:66:8a:08:e9:fd:d9:
        0b:a3:0b:8f:92:c9:37:41:34:3d:47:d8:ca:d7:35:63:af:8c:
        4f:14:59:2d:29:07:85:da:8a:6f:57:2d:7d:0a:ae:f2:30:55:
        d0:1e:f2:04:c3:41:a8:f6:dc:b0:93:15:e5:82:06:d8:08:6c:
        f6:c9:b0:49:a0:75:d0:41:db:8b:84:f4:a3:62:ac:8b:98:09:
        12:c1:df:8c:54:b3:75:8e:70:de:68:c5:bf:b1:fe:42:5a:a1:
        73:1a:83:0a:af:18:04:09:2d:b1:0a:36:2b:69:e6:6c:4c:f2:
        a9:21:c9:dc:e4:7a:42:cf:90:f2:7b:50:a7:f8:fc:3e:c0:47:
        f1:f6:0e:58:15:de:61:af:62:37:cb:72:97:64:27:03:b8:6f:
        78:ae:1b:c2:20:30:02:cc:2d:4a:6d:0d:93:69:6a:c2:0e:ab:
        f4:0b:5a:92:18:44:02:e2:78:3f:3b:4c:bc:db:83:30:04:e0:
        49:3a:ce:80:f7:bb:9a:31:c9:d2:ce:d5:2f:b8:28:7f:be:4b:
        32:e8:b4:1d:3f:1e:19:6d:85:30:7b:f8:f7:3a:c7:bb:6a:e5:
        95:3f:f9:aa:fe:6e:50:e3:a3:a6:27:f7:d4:1c:49:4a:0c:a7:
        7b:14:42:3f
-----BEGIN CERTIFICATE-----
MIIEUzCCAzugAwIBAgIJAIa4s4JOuWxXMA0GCSqGSIb3DQEBBQUAMHgxCzAJBgNV
BAYTAkJFMRcwFQYDVQQIDA5WbGFhbXMtQnJhYmFudDEQMA4GA1UECgwHU2llbWVu
czEoMCYGA1UECwwfU2llbWVucyBJVCBTb2x1dGlvbnMgJiBTZXJ2aWNlczEUMBIG
A1UEAwwLU0lTIFJvb3QgQ0EwHhcNMTAwNjEwMTA1NzQ2WhcNMTUwNjA5MTA1NzQ2
WjCBiDELMAkGA1UEBhMCQkUxFzAVBgNVBAgMDlZsYWFtcy1CcmFiYW50MRAwDgYD
VQQKDAdTaWVtZW5zMSgwJgYDVQQLDB9TaWVtZW5zIElUIFNvbHV0aW9ucyAmIFNl
cnZpY2VzMSQwIgYDVQQDDBtTSVMgUmV2b2tlZCBJbnRlcm1lZGlhdGUgQ0EwggEi
MA0GCSqGSIb3DQEBAQUAA4IBDwAwggEKAoIBAQDTYexAVsurl4W3GA2tTQIwkjcv
WJ1kFZZumvArlzg51nKwGcYc8vdzlXD9jgyqRimyOx8ZCY+W0nRNqRPRYXO88DdN
rJwPohvl31aP3LsibRoxygkoO+RdjlakAg8w8/jk6bcl6LH4pqzGTWIBTmsEheHt
MFcDv9nsbPE7kknYT90KmiSShMOetXG+YVuOliT7ybEhjWSwmQ4Joq+F21Lx0bk+
TGRI36m8iYLP2aqOBjflT0+FuzE6stWJTFirk5R5jR2bFG+0sfk9vf+vfL53rLKh
ILd7q8EA43R6VJ7lRqLSUMvwGITrDx8msRLhK2qe3Hcba0lzUlM9VN0/krCJAgMB
AAGjgc4wgcswHQYDVR0OBBYEFPVql7qXfKvzgIj8CKoQ2pW7JzqUMB8GA1UdIwQY
MBaAFM7FeB9GaIOOBAsGLIG7WeF2eIObMA8GA1UdEwEB/wQFMAMBAf8wDgYDVR0P
AQH/BAQDAgEGMDAGA1UdHwQpMCcwJaAjoCGGH2h0dHA6Ly9sb2NhbGhvc3Q6ODE4
MS9zaXNjYS5jcmwwNgYIKwYBBQUHAQEEKjAoMCYGCCsGAQUFBzABhhpodHRwOi8v
bG9jYWxob3N0OjgxODEvb2NzcDANBgkqhkiG9w0BAQUFAAOCAQEAb/UwOOSjgcZk
nPOwZooI6f3ZC6MLj5LJN0E0PUfYytc1Y6+MTxRZLSkHhdqKb1ctfQqu8jBV0B7y
BMNBqPbcsJMV5YIG2Ahs9smwSaB10EHbi4T0o2Ksi5gJEsHfjFSzdY5w3mjFv7H+
QlqhcxqDCq8YBAktsQo2K2nmbEzyqSHJ3OR6Qs+Q8ntQp/j8PsBH8fYOWBXeYa9i
N8tyl2QnA7hveK4bwiAwAswtSm0Nk2lqwg6r9AtakhhEAuJ4PztMvNuDMATgSTrO
gPe7mjHJ0s7VL7gof75LMui0HT8eGW2FMHv49zrHu2rllT/5qv5uUOOjpif31BxJ
SgynexRCPw==
-----END CERTIFICATE-----
