Certificate:
    Data:
        Version: 3 (0x2)
        Serial Number: 1 (0x1)
        Signature Algorithm: sha1WithRSAEncryption
        Issuer: C=BE, ST=Vlaams-Brabant, O=Siemens, OU=Siemens IT Solutions & Services, CN=SIS Revoked Intermediate CA
        Validity
            Not Before: Jun  8 11:34:16 2010 GMT
            Not After : Jun  8 11:34:16 2011 GMT
        Subject: C=BE, ST=Vlaams-Brabant, O=Siemens, OU=Siemens IT Solutions & Services, CN=NIHII=30000000101
        Subject Public Key Info:
            Public Key Algorithm: rsaEncryption
                Public-Key: (2048 bit)
                Modulus:
                    00:aa:97:88:4d:c5:1b:4d:4b:f2:86:8c:58:1f:99:
                    c3:0f:f2:a6:2a:34:21:33:9e:0c:15:6c:e8:40:34:
                    28:5d:74:d1:70:af:ca:7a:11:f7:26:64:d0:3a:70:
                    d0:4f:1c:04:f6:33:b7:4c:75:a3:54:5a:91:8c:8a:
                    b8:6e:2d:82:b0:7f:c7:14:69:5a:58:43:ba:98:98:
                    8a:31:ab:4e:f8:5e:6a:a7:c4:60:68:d3:31:21:12:
                    ce:f6:f1:b1:04:7a:fa:dc:e1:41:88:a0:63:b3:a1:
                    cd:33:6b:75:67:bf:cd:1a:50:fc:2d:a7:11:d2:53:
                    b7:8d:fb:71:18:e3:61:cd:54:08:45:66:b8:63:31:
                    58:33:02:14:2a:cb:bd:88:90:38:a6:56:60:0e:c0:
                    88:08:80:5b:8a:c6:31:d8:ba:5b:85:2b:3a:d3:eb:
                    54:bd:8c:b0:45:09:21:6b:14:f2:53:66:53:9a:e5:
                    eb:de:44:e5:8a:d1:ba:01:ab:59:5e:fe:10:60:cb:
                    1c:01:bf:b5:3a:6a:c5:4e:e5:93:53:2b:f7:88:27:
                    b8:0f:96:ad:05:fe:1a:8b:40:d4:32:0a:9a:e8:63:
                    72:79:73:2e:2e:aa:a4:3b:f9:a7:44:3f:2e:42:0d:
                    ba:a8:e8:b5:69:71:c1:d3:1f:b4:68:ec:5c:96:37:
                    0f:21
                Exponent: 65537 (0x10001)
        X509v3 extensions:
            X509v3 Key Usage: critical
                Digital Signature
            X509v3 Subject Key Identifier: 
                BF:A7:E1:8E:A1:1F:3A:A1:9C:2A:8B:C5:4F:15:41:15:73:4B:2B:36
            X509v3 Authority Key Identifier: 
                keyid:F5:6A:97:BA:97:7C:AB:F3:80:88:FC:08:AA:10:DA:95:BB:27:3A:94

            X509v3 Extended Key Usage: 
                TLS Web Client Authentication
            X509v3 CRL Distribution Points: 

                Full Name:
                  URI:http://localhost:8181/sisintca.crl

            Authority Information Access: 
                OCSP - URI:http://localhost:8181/ocsp

    Signature Algorithm: sha1WithRSAEncryption
        7a:77:93:cf:33:42:27:a2:80:fd:c3:25:3f:21:7a:38:d3:d5:
        fd:83:7b:b5:3a:95:12:19:ed:5a:6b:86:46:df:90:e9:7b:84:
        5e:ed:7b:f1:e3:54:92:86:28:5a:95:b7:e5:85:c6:53:74:dd:
        5c:b3:0f:c0:7d:47:51:66:74:4e:a4:27:e2:6d:70:6a:a1:47:
        0a:97:f9:cd:43:92:25:62:3c:d3:2d:50:89:a2:22:e0:e7:8e:
        a4:c7:e6:80:09:e5:37:35:2b:91:b7:d5:fe:61:40:10:47:4a:
        5f:e1:07:ad:9a:ca:46:61:50:69:a4:8c:11:15:c4:13:5e:73:
        80:22:57:f4:8e:d8:36:a8:20:f2:6d:12:69:9b:8e:8b:7d:48:
        e6:0d:1a:29:2c:a4:4c:3b:eb:cf:50:5d:1c:98:15:32:05:96:
        d7:ae:37:e3:6a:5a:c5:16:53:ed:06:6a:94:0e:e0:a7:2d:c1:
        18:d2:ec:70:fe:c6:ac:f6:c1:86:21:af:d0:7a:6c:44:8e:94:
        52:d9:2e:d7:fd:fd:31:49:44:4b:42:59:74:13:e0:9d:e0:88:
        c6:75:01:84:ea:de:a9:ad:18:ce:65:71:0c:97:93:90:5d:de:
        ae:b8:27:7b:15:8e:c0:dd:83:2e:2a:4b:6e:73:f2:10:6e:eb:
        28:02:64:6c
-----BEGIN CERTIFICATE-----
MIIEWDCCA0CgAwIBAgIBATANBgkqhkiG9w0BAQUFADCBiDELMAkGA1UEBhMCQkUx
FzAVBgNVBAgMDlZsYWFtcy1CcmFiYW50MRAwDgYDVQQKDAdTaWVtZW5zMSgwJgYD
VQQLDB9TaWVtZW5zIElUIFNvbHV0aW9ucyAmIFNlcnZpY2VzMSQwIgYDVQQDDBtT
SVMgUmV2b2tlZCBJbnRlcm1lZGlhdGUgQ0EwHhcNMTAwNjA4MTEzNDE2WhcNMTEw
NjA4MTEzNDE2WjB+MQswCQYDVQQGEwJCRTEXMBUGA1UECAwOVmxhYW1zLUJyYWJh
bnQxEDAOBgNVBAoMB1NpZW1lbnMxKDAmBgNVBAsMH1NpZW1lbnMgSVQgU29sdXRp
b25zICYgU2VydmljZXMxGjAYBgNVBAMMEU5JSElJPTMwMDAwMDAwMTAxMIIBIjAN
BgkqhkiG9w0BAQEFAAOCAQ8AMIIBCgKCAQEAqpeITcUbTUvyhoxYH5nDD/KmKjQh
M54MFWzoQDQoXXTRcK/KehH3JmTQOnDQTxwE9jO3THWjVFqRjIq4bi2CsH/HFGla
WEO6mJiKMatO+F5qp8RgaNMxIRLO9vGxBHr63OFBiKBjs6HNM2t1Z7/NGlD8LacR
0lO3jftxGONhzVQIRWa4YzFYMwIUKsu9iJA4plZgDsCICIBbisYx2LpbhSs60+tU
vYywRQkhaxTyU2ZTmuXr3kTlitG6AatZXv4QYMscAb+1OmrFTuWTUyv3iCe4D5at
Bf4ai0DUMgqa6GNyeXMuLqqkO/mnRD8uQg26qOi1aXHB0x+0aOxcljcPIQIDAQAB
o4HVMIHSMA4GA1UdDwEB/wQEAwIHgDAdBgNVHQ4EFgQUv6fhjqEfOqGcKovFTxVB
FXNLKzYwHwYDVR0jBBgwFoAU9WqXupd8q/OAiPwIqhDalbsnOpQwEwYDVR0lBAww
CgYIKwYBBQUHAwIwMwYDVR0fBCwwKjAooCagJIYiaHR0cDovL2xvY2FsaG9zdDo4
MTgxL3Npc2ludGNhLmNybDA2BggrBgEFBQcBAQQqMCgwJgYIKwYBBQUHMAGGGmh0
dHA6Ly9sb2NhbGhvc3Q6ODE4MS9vY3NwMA0GCSqGSIb3DQEBBQUAA4IBAQB6d5PP
M0InooD9wyU/IXo409X9g3u1OpUSGe1aa4ZG35Dpe4Re7Xvx41SShihalbflhcZT
dN1csw/AfUdRZnROpCfibXBqoUcKl/nNQ5IlYjzTLVCJoiLg546kx+aACeU3NSuR
t9X+YUAQR0pf4QetmspGYVBppIwRFcQTXnOAIlf0jtg2qCDybRJpm46LfUjmDRop
LKRMO+vPUF0cmBUyBZbXrjfjalrFFlPtBmqUDuCnLcEY0uxw/sas9sGGIa/QemxE
jpRS2S7X/f0xSURLQll0E+Cd4IjGdQGE6t6prRjOZXEMl5OQXd6uuCd7FY7A3YMu
Kktuc/IQbusoAmRs
-----END CERTIFICATE-----
