Certificate:
    Data:
        Version: 3 (0x2)
        Serial Number:
            86:b8:b3:82:4e:b9:6c:52
        Signature Algorithm: sha1WithRSAEncryption
        Issuer: C=BE, ST=Vlaams-Brabant, O=Siemens, OU=Siemens IT Solutions & Services, CN=SIS Root CA
        Validity
            Not Before: Jun  9 07:18:43 2010 GMT
            Not After : Jun  4 07:18:43 2030 GMT
        Subject: C=BE, ST=Vlaams-Brabant, O=Siemens, OU=Siemens IT Solutions & Services, CN=SIS Intermediate CA Non Overlap
        Subject Public Key Info:
            Public Key Algorithm: rsaEncryption
                Public-Key: (2048 bit)
                Modulus:
                    00:c9:db:ef:04:22:69:aa:23:48:02:86:4d:99:ad:
                    88:e2:51:a4:21:fb:88:b4:97:88:93:9e:6e:d6:1d:
                    89:3b:ef:12:c2:53:89:be:b3:54:90:ce:d5:d3:07:
                    a4:56:88:5a:27:a9:d3:36:4a:fd:af:de:99:be:93:
                    0a:72:4e:21:0c:bb:fa:2e:c1:9b:38:ba:24:18:1f:
                    00:79:ae:80:ac:b4:9f:20:4f:d2:ef:d0:d4:84:4c:
                    15:88:b8:4c:70:c0:99:38:95:cb:61:7d:c6:27:47:
                    04:60:65:77:00:5a:b4:27:91:79:28:f1:a2:02:54:
                    60:8a:23:19:a5:6f:87:89:b4:d1:01:a3:1e:18:91:
                    03:bf:89:5b:17:95:1c:f2:dc:77:ec:08:72:27:bb:
                    53:41:23:d4:41:bd:bd:6d:34:b1:2d:9f:b7:34:c7:
                    ec:62:52:99:e2:72:13:43:36:56:94:7e:da:3b:cf:
                    93:93:a0:1f:d9:81:e1:e5:1b:4f:e7:1d:fa:a8:85:
                    19:14:66:7a:b1:d2:11:4c:7a:4c:fe:1d:55:d8:d5:
                    0e:cf:f9:fd:9c:8a:f8:8f:31:77:a0:90:29:ca:6c:
                    93:74:e8:3f:e1:bc:35:0b:a4:c3:a9:78:16:26:a0:
                    94:e5:0c:ee:40:40:27:be:9a:0d:d2:6e:70:7e:5b:
                    10:95
                Exponent: 65537 (0x10001)
        X509v3 extensions:
            X509v3 Subject Key Identifier: 
                8F:2D:43:B7:E2:E0:E6:E3:A8:43:51:41:B2:82:85:17:EE:BA:74:6A
            X509v3 Authority Key Identifier: 
                keyid:CE:C5:78:1F:46:68:83:8E:04:0B:06:2C:81:BB:59:E1:76:78:83:9B

            X509v3 Basic Constraints: critical
                CA:TRUE
            X509v3 Key Usage: critical
                Certificate Sign, CRL Sign
            X509v3 CRL Distribution Points: 

                Full Name:
                  URI:http://localhost:8181/sisca.crl

            Authority Information Access: 
                OCSP - URI:http://localhost:8181/ocsp

    Signature Algorithm: sha1WithRSAEncryption
        5b:c4:aa:74:38:e7:fb:bc:87:3f:30:96:54:77:70:46:fa:c4:
        76:02:fd:7f:ef:3e:65:93:6d:d3:f9:5d:1f:61:df:9b:e8:62:
        04:12:f8:a1:a8:ae:46:62:b4:83:09:66:06:3e:b6:f6:89:64:
        9c:80:83:66:f1:d2:46:2b:2e:a1:1d:f5:4c:e6:18:37:3f:52:
        6d:0f:33:6b:04:dc:ee:90:2a:c2:5b:f0:5e:02:1a:67:1d:ea:
        49:07:fd:42:0d:2e:80:a2:ca:b8:64:dc:24:36:fd:a1:d8:23:
        76:cd:ce:a5:2e:d0:13:fe:65:47:25:ca:46:4e:55:1a:e6:37:
        b6:b7:f0:12:ce:0e:38:d3:20:af:f1:53:e5:d5:f3:60:80:f6:
        54:1a:a7:f1:1f:41:9a:0c:6c:e0:c6:a3:f6:fc:0b:d7:b8:35:
        b6:9f:5d:bc:95:95:16:7a:c8:53:fd:da:97:44:e2:5c:1b:80:
        e6:28:7f:d7:2e:68:42:ba:3d:e3:78:05:39:de:82:2f:86:8c:
        6b:3a:65:30:3f:95:93:e9:39:45:6a:6c:b3:23:44:97:09:e5:
        5b:e1:33:3d:b2:0c:0e:a1:cc:6e:3f:98:0e:de:c0:e6:41:90:
        27:ed:54:64:76:d1:e0:cd:4b:54:29:0c:13:c8:bf:b9:65:4e:
        7d:82:c1:98
-----BEGIN CERTIFICATE-----
MIIEVzCCAz+gAwIBAgIJAIa4s4JOuWxSMA0GCSqGSIb3DQEBBQUAMHgxCzAJBgNV
BAYTAkJFMRcwFQYDVQQIDA5WbGFhbXMtQnJhYmFudDEQMA4GA1UECgwHU2llbWVu
czEoMCYGA1UECwwfU2llbWVucyBJVCBTb2x1dGlvbnMgJiBTZXJ2aWNlczEUMBIG
A1UEAwwLU0lTIFJvb3QgQ0EwHhcNMTAwNjA5MDcxODQzWhcNMzAwNjA0MDcxODQz
WjCBjDELMAkGA1UEBhMCQkUxFzAVBgNVBAgMDlZsYWFtcy1CcmFiYW50MRAwDgYD
VQQKDAdTaWVtZW5zMSgwJgYDVQQLDB9TaWVtZW5zIElUIFNvbHV0aW9ucyAmIFNl
cnZpY2VzMSgwJgYDVQQDDB9TSVMgSW50ZXJtZWRpYXRlIENBIE5vbiBPdmVybGFw
MIIBIjANBgkqhkiG9w0BAQEFAAOCAQ8AMIIBCgKCAQEAydvvBCJpqiNIAoZNma2I
4lGkIfuItJeIk55u1h2JO+8SwlOJvrNUkM7V0wekVohaJ6nTNkr9r96ZvpMKck4h
DLv6LsGbOLokGB8Aea6ArLSfIE/S79DUhEwViLhMcMCZOJXLYX3GJ0cEYGV3AFq0
J5F5KPGiAlRgiiMZpW+HibTRAaMeGJEDv4lbF5Uc8tx37AhyJ7tTQSPUQb29bTSx
LZ+3NMfsYlKZ4nITQzZWlH7aO8+Tk6Af2YHh5RtP5x36qIUZFGZ6sdIRTHpM/h1V
2NUOz/n9nIr4jzF3oJApymyTdOg/4bw1C6TDqXgWJqCU5QzuQEAnvpoN0m5wflsQ
lQIDAQABo4HOMIHLMB0GA1UdDgQWBBSPLUO34uDm46hDUUGygoUX7rp0ajAfBgNV
HSMEGDAWgBTOxXgfRmiDjgQLBiyBu1nhdniDmzAPBgNVHRMBAf8EBTADAQH/MA4G
A1UdDwEB/wQEAwIBBjAwBgNVHR8EKTAnMCWgI6Ahhh9odHRwOi8vbG9jYWxob3N0
OjgxODEvc2lzY2EuY3JsMDYGCCsGAQUFBwEBBCowKDAmBggrBgEFBQcwAYYaaHR0
cDovL2xvY2FsaG9zdDo4MTgxL29jc3AwDQYJKoZIhvcNAQEFBQADggEBAFvEqnQ4
5/u8hz8wllR3cEb6xHYC/X/vPmWTbdP5XR9h35voYgQS+KGorkZitIMJZgY+tvaJ
ZJyAg2bx0kYrLqEd9UzmGDc/Um0PM2sE3O6QKsJb8F4CGmcd6kkH/UINLoCiyrhk
3CQ2/aHYI3bNzqUu0BP+ZUclykZOVRrmN7a38BLODjjTIK/xU+XV82CA9lQap/Ef
QZoMbODGo/b8C9e4NbafXbyVlRZ6yFP92pdE4lwbgOYof9cuaEK6PeN4BTnegi+G
jGs6ZTA/lZPpOUVqbLMjRJcJ5VvhMz2yDA6hzG4/mA7ewOZBkCftVGR20eDNS1Qp
DBPIv7llTn2CwZg=
-----END CERTIFICATE-----
