Certificate:
    Data:
        Version: 3 (0x2)
        Serial Number: 1 (0x1)
        Signature Algorithm: sha1WithRSAEncryption
        Issuer: C=BE, ST=Vlaams-Brabant, O=Siemens, OU=Siemens IT Solutions & Services, CN=SIS Intermediate CA Non Overlap
        Validity
            Not Before: Jun  9 07:21:44 2010 GMT
            Not After : Jun  9 07:21:44 2011 GMT
        Subject: C=BE, ST=Vlaams-Brabant, O=Siemens, OU=Siemens IT Solutions & Services, CN=NIHII=05000000101
        Subject Public Key Info:
            Public Key Algorithm: rsaEncryption
                Public-Key: (2048 bit)
                Modulus:
                    00:cd:84:d4:74:21:77:78:fd:66:4a:4f:b6:6a:c3:
                    a6:1a:d6:b4:ec:37:62:da:44:72:5c:51:c0:cd:30:
                    4a:f2:24:e2:5b:d0:52:fa:ca:65:7d:c8:b5:32:1f:
                    cc:ac:cb:d9:13:4e:e5:cf:80:74:7f:d4:ff:c3:3f:
                    73:8f:95:f4:5d:af:83:12:60:74:64:52:30:37:fb:
                    7c:22:66:c9:b4:fd:e5:07:c0:1e:78:c9:3e:46:48:
                    7e:b1:e0:5a:b4:c1:28:10:df:38:06:e4:ca:c4:7e:
                    b3:5a:32:97:5c:25:af:58:ad:70:e1:5d:76:4d:b8:
                    84:34:df:04:90:3b:db:53:69:f3:f9:fb:fd:8b:fa:
                    cd:54:f1:3a:c6:2a:77:46:a0:29:63:0f:af:ee:64:
                    aa:30:8e:7f:6a:01:64:8f:76:30:76:c0:a2:28:ee:
                    97:3c:42:3e:4e:09:d0:ab:13:e1:7b:72:c1:7a:eb:
                    c4:94:32:69:7d:a2:20:8e:a4:8c:93:24:67:9e:97:
                    2a:87:d2:1d:40:24:68:3c:35:b5:3d:89:14:a2:02:
                    6a:05:a0:af:70:9a:29:a1:83:d4:93:4c:a2:97:33:
                    4a:92:38:df:49:7c:bb:df:6a:4e:54:5d:0b:e4:0a:
                    c2:ee:2a:b2:12:08:dc:24:e1:54:19:68:59:6b:cc:
                    73:4d
                Exponent: 65537 (0x10001)
        X509v3 extensions:
            X509v3 Key Usage: critical
                Digital Signature
            X509v3 Subject Key Identifier: 
                84:EC:88:25:01:57:06:91:A0:7F:7B:5C:18:8C:A9:57:E2:04:C9:7E
            X509v3 Authority Key Identifier: 
                keyid:8F:2D:43:B7:E2:E0:E6:E3:A8:43:51:41:B2:82:85:17:EE:BA:74:6A

            X509v3 Extended Key Usage: 
                TLS Web Client Authentication
            X509v3 CRL Distribution Points: 

                Full Name:
                  URI:http://localhost:8181/sisintca.crl

            Authority Information Access: 
                OCSP - URI:http://localhost:8181/ocsp

    Signature Algorithm: sha1WithRSAEncryption
        4e:79:79:60:22:03:2c:6d:fb:81:dd:de:c7:3b:74:21:d1:be:
        28:a6:d4:9c:68:40:cf:6b:28:ff:c6:1f:03:88:37:d1:f9:74:
        78:cd:0b:35:56:99:46:98:00:37:8c:c6:f3:80:5c:9e:5f:fb:
        44:cc:0e:bf:8b:08:90:71:77:24:e6:13:a5:ae:5a:3f:f4:c9:
        5f:6d:48:62:11:49:0c:9e:17:da:64:99:99:11:4f:de:36:19:
        39:38:9e:de:9c:45:34:bc:b3:08:17:b4:43:e6:e2:77:b2:94:
        95:8d:69:78:d9:e8:d9:26:e9:18:40:c1:18:09:67:2e:5c:e2:
        fb:a7:e3:7a:27:7f:76:e9:cd:13:6e:d5:c6:e6:2b:32:a5:ab:
        b0:46:dc:bf:0a:6f:c8:db:38:28:e9:f8:e9:e1:81:8f:cd:5e:
        08:5e:6f:be:91:25:2d:fb:de:bb:7d:5e:17:30:c0:f8:5f:55:
        da:da:55:e1:a2:91:82:2b:c5:27:a1:d5:4f:04:36:d1:32:2b:
        21:a5:b0:1c:dc:c7:2b:36:53:f7:82:df:29:53:40:a7:b2:a3:
        84:5a:6d:a2:5a:de:59:b5:08:f2:3d:e6:9a:51:3c:f7:1c:85:
        9c:94:ce:f8:84:44:06:ea:4d:12:c6:ed:c5:93:c4:2e:16:cc:
        a0:f1:f6:9f
-----BEGIN CERTIFICATE-----
MIIEXDCCA0SgAwIBAgIBATANBgkqhkiG9w0BAQUFADCBjDELMAkGA1UEBhMCQkUx
FzAVBgNVBAgMDlZsYWFtcy1CcmFiYW50MRAwDgYDVQQKDAdTaWVtZW5zMSgwJgYD
VQQLDB9TaWVtZW5zIElUIFNvbHV0aW9ucyAmIFNlcnZpY2VzMSgwJgYDVQQDDB9T
SVMgSW50ZXJtZWRpYXRlIENBIE5vbiBPdmVybGFwMB4XDTEwMDYwOTA3MjE0NFoX
DTExMDYwOTA3MjE0NFowfjELMAkGA1UEBhMCQkUxFzAVBgNVBAgMDlZsYWFtcy1C
cmFiYW50MRAwDgYDVQQKDAdTaWVtZW5zMSgwJgYDVQQLDB9TaWVtZW5zIElUIFNv
bHV0aW9ucyAmIFNlcnZpY2VzMRowGAYDVQQDDBFOSUhJST0wNTAwMDAwMDEwMTCC
ASIwDQYJKoZIhvcNAQEBBQADggEPADCCAQoCggEBAM2E1HQhd3j9ZkpPtmrDphrW
tOw3YtpEclxRwM0wSvIk4lvQUvrKZX3ItTIfzKzL2RNO5c+AdH/U/8M/c4+V9F2v
gxJgdGRSMDf7fCJmybT95QfAHnjJPkZIfrHgWrTBKBDfOAbkysR+s1oyl1wlr1it
cOFddk24hDTfBJA721Np8/n7/Yv6zVTxOsYqd0agKWMPr+5kqjCOf2oBZI92MHbA
oijulzxCPk4J0KsT4XtywXrrxJQyaX2iII6kjJMkZ56XKofSHUAkaDw1tT2JFKIC
agWgr3CaKaGD1JNMopczSpI430l8u99qTlRdC+QKwu4qshII3CThVBloWWvMc00C
AwEAAaOB1TCB0jAOBgNVHQ8BAf8EBAMCB4AwHQYDVR0OBBYEFITsiCUBVwaRoH97
XBiMqVfiBMl+MB8GA1UdIwQYMBaAFI8tQ7fi4ObjqENRQbKChRfuunRqMBMGA1Ud
JQQMMAoGCCsGAQUFBwMCMDMGA1UdHwQsMCowKKAmoCSGImh0dHA6Ly9sb2NhbGhv
c3Q6ODE4MS9zaXNpbnRjYS5jcmwwNgYIKwYBBQUHAQEEKjAoMCYGCCsGAQUFBzAB
hhpodHRwOi8vbG9jYWxob3N0OjgxODEvb2NzcDANBgkqhkiG9w0BAQUFAAOCAQEA
Tnl5YCIDLG37gd3exzt0IdG+KKbUnGhAz2so/8YfA4g30fl0eM0LNVaZRpgAN4zG
84Bcnl/7RMwOv4sIkHF3JOYTpa5aP/TJX21IYhFJDJ4X2mSZmRFP3jYZOTie3pxF
NLyzCBe0Q+bid7KUlY1peNno2SbpGEDBGAlnLlzi+6fjeid/dunNE27VxuYrMqWr
sEbcvwpvyNs4KOn46eGBj81eCF5vvpElLfveu31eFzDA+F9V2tpV4aKRgivFJ6HV
TwQ20TIrIaWwHNzHKzZT94LfKVNAp7KjhFptolreWbUI8j3mmlE89xyFnJTO+IRE
BupNEsbtxZPELhbMoPH2nw==
-----END CERTIFICATE-----
