Certificate:
    Data:
        Version: 3 (0x2)
        Serial Number:
            86:b8:b3:82:4e:b9:6c:53
        Signature Algorithm: sha1WithRSAEncryption
        Issuer: C=BE, ST=Vlaams-Brabant, O=Siemens, OU=Siemens IT Solutions & Services, CN=SIS Root CA
        Validity
            Not Before: Jan  1 00:00:00 2010 GMT
            Not After : Jun  8 07:25:18 2015 GMT
        Subject: C=BE, ST=Vlaams-Brabant, O=Siemens, OU=Siemens IT Solutions & Services, CN=SIS Intermediate CA Non Overlap2
        Subject Public Key Info:
            Public Key Algorithm: rsaEncryption
                Public-Key: (2048 bit)
                Modulus:
                    00:d6:2e:b3:14:25:f5:27:4c:b2:ce:54:4a:3e:ad:
                    83:e9:61:b0:cc:e8:aa:7d:e3:a9:e6:38:93:31:46:
                    d6:0e:e7:e1:f9:a1:e9:f5:9c:2f:d5:0c:55:b0:13:
                    3c:20:b7:54:3f:9e:a9:fe:b4:c5:4d:f2:33:67:be:
                    13:4e:a2:c5:15:e2:8e:4f:64:ca:c6:51:12:5b:b1:
                    73:64:38:1b:ab:5d:04:99:c4:9a:b9:d3:4e:82:5e:
                    b5:c9:cb:7f:fc:7a:87:76:2d:4a:67:96:b1:7a:1a:
                    d1:11:42:11:6a:0a:4a:88:e3:86:cc:3f:9a:1b:31:
                    e8:fb:77:8b:ac:79:f9:e0:52:fb:30:7f:3d:2e:03:
                    6a:00:07:f3:54:c2:d6:87:a8:d5:cf:e9:b9:e3:ef:
                    a1:8e:ed:b0:60:4b:d1:a1:90:33:8a:0e:77:d5:63:
                    72:96:f0:48:16:bc:8b:33:10:fa:38:c3:a6:b9:2e:
                    10:2c:99:78:c4:85:02:78:7e:a2:b2:b7:36:b2:ae:
                    ba:c8:9b:3e:15:b7:5f:22:5c:81:3b:1a:cf:2c:06:
                    ad:81:32:06:f6:85:6c:2b:98:2c:27:3a:6f:99:19:
                    d1:0b:c5:e6:03:f2:d7:87:fa:51:7c:90:c9:bd:cb:
                    df:da:f0:46:b2:8e:af:f9:5a:04:21:75:ca:ed:ae:
                    ea:65
                Exponent: 65537 (0x10001)
        X509v3 extensions:
            X509v3 Subject Key Identifier: 
                F1:A2:12:CF:48:C9:A8:EA:87:24:0A:E9:AD:F0:6C:E6:00:58:3D:16
            X509v3 Authority Key Identifier: 
                keyid:CE:C5:78:1F:46:68:83:8E:04:0B:06:2C:81:BB:59:E1:76:78:83:9B

            X509v3 Basic Constraints: critical
                CA:TRUE
            X509v3 Key Usage: critical
                Certificate Sign, CRL Sign
            X509v3 CRL Distribution Points: 

                Full Name:
                  URI:http://localhost:8181/sisca.crl

            Authority Information Access: 
                OCSP - URI:http://localhost:8181/ocsp

    Signature Algorithm: sha1WithRSAEncryption
        09:d0:30:af:68:8a:26:89:26:1a:f3:0c:68:91:5e:76:57:44:
        d1:62:c2:aa:8b:e4:f0:17:6e:0a:6d:22:ce:18:3a:9d:ec:dc:
        69:c0:fe:a9:d4:06:55:d1:cc:35:33:64:71:f7:79:91:8f:ae:
        1e:eb:32:23:ee:57:52:eb:49:e8:8a:8d:68:16:41:c8:ce:86:
        fd:f7:06:1a:cb:ef:88:b6:87:52:38:af:35:85:37:af:ec:9a:
        87:29:f7:14:af:f0:74:91:ca:44:c0:14:30:2c:ee:2a:69:94:
        61:ed:d4:ec:60:67:00:e0:aa:5a:ec:91:16:d7:0f:28:d7:87:
        3d:4d:0b:f6:54:c8:ce:d2:40:e7:a3:d6:bb:b7:00:97:ae:b5:
        14:4c:63:39:ac:89:7d:33:cf:d6:c4:54:6a:5a:7d:30:7c:6a:
        fa:ce:f1:df:7b:c1:81:f1:13:a8:84:39:91:88:ad:c0:8c:3a:
        e1:e5:8c:57:56:d6:bf:a7:5c:1b:74:e2:ce:33:e8:e0:fe:ff:
        53:d8:0e:00:e5:7c:a0:65:11:54:8a:5d:72:29:0b:76:88:ca:
        4d:30:ab:72:89:d3:cd:c5:e2:ca:2e:8b:cd:9c:c4:08:fe:24:
        15:1f:ae:55:72:d7:29:92:43:1e:70:d3:6c:77:d6:09:7b:f7:
        89:78:38:9f
-----BEGIN CERTIFICATE-----
MIIEWjCCA0KgAwIBAgIJAIa4s4JOuWxTMA0GCSqGSIb3DQEBBQUAMHgxCzAJBgNV
BAYTAkJFMRcwFQYDVQQIDA5WbGFhbXMtQnJhYmFudDEQMA4GA1UECgwHU2llbWVu
czEoMCYGA1UECwwfU2llbWVucyBJVCBTb2x1dGlvbnMgJiBTZXJ2aWNlczEUMBIG
A1UEAwwLU0lTIFJvb3QgQ0EwIBgPMjAxMDAxMDEwMDAwMDBaFw0xNTA2MDgwNzI1
MThaMIGNMQswCQYDVQQGEwJCRTEXMBUGA1UECAwOVmxhYW1zLUJyYWJhbnQxEDAO
BgNVBAoMB1NpZW1lbnMxKDAmBgNVBAsMH1NpZW1lbnMgSVQgU29sdXRpb25zICYg
U2VydmljZXMxKTAnBgNVBAMMIFNJUyBJbnRlcm1lZGlhdGUgQ0EgTm9uIE92ZXJs
YXAyMIIBIjANBgkqhkiG9w0BAQEFAAOCAQ8AMIIBCgKCAQEA1i6zFCX1J0yyzlRK
Pq2D6WGwzOiqfeOp5jiTMUbWDufh+aHp9Zwv1QxVsBM8ILdUP56p/rTFTfIzZ74T
TqLFFeKOT2TKxlESW7FzZDgbq10EmcSaudNOgl61yct//HqHdi1KZ5axehrREUIR
agpKiOOGzD+aGzHo+3eLrHn54FL7MH89LgNqAAfzVMLWh6jVz+m54++hju2wYEvR
oZAzig531WNylvBIFryLMxD6OMOmuS4QLJl4xIUCeH6isrc2sq66yJs+FbdfIlyB
OxrPLAatgTIG9oVsK5gsJzpvmRnRC8XmA/LXh/pRfJDJvcvf2vBGso6v+VoEIXXK
7a7qZQIDAQABo4HOMIHLMB0GA1UdDgQWBBTxohLPSMmo6ockCumt8GzmAFg9FjAf
BgNVHSMEGDAWgBTOxXgfRmiDjgQLBiyBu1nhdniDmzAPBgNVHRMBAf8EBTADAQH/
MA4GA1UdDwEB/wQEAwIBBjAwBgNVHR8EKTAnMCWgI6Ahhh9odHRwOi8vbG9jYWxo
b3N0OjgxODEvc2lzY2EuY3JsMDYGCCsGAQUFBwEBBCowKDAmBggrBgEFBQcwAYYa
aHR0cDovL2xvY2FsaG9zdDo4MTgxL29jc3AwDQYJKoZIhvcNAQEFBQADggEBAAnQ
MK9oiiaJJhrzDGiRXnZXRNFiwqqL5PAXbgptIs4YOp3s3GnA/qnUBlXRzDUzZHH3
eZGPrh7rMiPuV1LrSeiKjWgWQcjOhv33BhrL74i2h1I4rzWFN6/smocp9xSv8HSR
ykTAFDAs7ipplGHt1OxgZwDgqlrskRbXDyjXhz1NC/ZUyM7SQOej1ru3AJeutRRM
YzmsiX0zz9bEVGpafTB8avrO8d97wYHxE6iEOZGIrcCMOuHljFdW1r+nXBt04s4z
6OD+/1PYDgDlfKBlEVSKXXIpC3aIyk0wq3KJ083F4soui82cxAj+JBUfrlVy1ymS
Qx5w02x31gl794l4OJ8=
-----END CERTIFICATE-----
