Certificate:
    Data:
        Version: 3 (0x2)
        Serial Number: 1 (0x1)
        Signature Algorithm: sha1WithRSAEncryption
        Issuer: C=BE, ST=Vlaams-Brabant, O=Siemens, OU=Siemens IT Solutions & Services, CN=SIS Intermediate CA Non Overlap2
        Validity
            Not Before: Jun  9 07:26:36 2010 GMT
            Not After : Jun  9 07:26:36 2011 GMT
        Subject: C=BE, ST=Vlaams-Brabant, O=Siemens, OU=Siemens IT Solutions & Services, CN=NIHII=07000000101
        Subject Public Key Info:
            Public Key Algorithm: rsaEncryption
                Public-Key: (2048 bit)
                Modulus:
                    00:a3:ab:e1:17:d0:2e:76:5d:9a:7f:d2:7a:ec:42:
                    11:0d:4a:c5:9b:c2:bd:90:89:a3:db:e9:05:60:2a:
                    19:c0:db:b9:44:75:49:2b:af:e4:d7:73:db:2a:8b:
                    5b:11:53:85:2a:63:21:43:a4:a7:b1:d5:85:07:b8:
                    ff:e0:81:62:dc:7d:0f:3a:f1:15:83:9e:1d:d2:c5:
                    d8:8b:79:fe:c3:96:ee:9b:7c:da:91:05:44:c2:07:
                    f6:8c:9f:71:09:2f:14:bb:44:be:50:b3:67:7f:3a:
                    69:5c:2e:6b:7f:64:fe:93:ad:26:8a:a8:1c:ec:8e:
                    e1:75:01:45:00:fb:8c:6f:b2:ef:96:44:f8:28:b8:
                    8a:84:39:1e:16:4a:5d:4e:da:91:22:c3:13:07:e3:
                    f0:a9:03:af:81:40:8b:f0:4f:de:c4:15:ca:cf:ce:
                    33:d7:9f:5b:e1:38:be:38:cc:e7:10:2a:23:23:df:
                    50:45:98:96:64:0d:64:be:ed:e7:25:d2:09:d4:93:
                    7b:a4:39:89:7d:cf:53:68:42:b1:f9:c0:b5:77:80:
                    60:e2:99:26:bd:bb:d5:a3:3e:56:e8:9e:08:f6:5d:
                    0d:73:05:bd:a4:09:43:22:ac:85:07:4f:6e:16:70:
                    1e:00:20:a9:4f:bc:78:7f:fa:be:29:41:4e:1f:7e:
                    c5:e1
                Exponent: 65537 (0x10001)
        X509v3 extensions:
            X509v3 Key Usage: critical
                Digital Signature
            X509v3 Subject Key Identifier: 
                D1:DC:C5:F0:D8:06:8C:DD:2F:2B:4C:9F:6D:13:EF:A5:30:75:FA:7D
            X509v3 Authority Key Identifier: 
                keyid:F1:A2:12:CF:48:C9:A8:EA:87:24:0A:E9:AD:F0:6C:E6:00:58:3D:16

            X509v3 Extended Key Usage: 
                TLS Web Client Authentication
            X509v3 CRL Distribution Points: 

                Full Name:
                  URI:http://localhost:8181/sisintca.crl

            Authority Information Access: 
                OCSP - URI:http://localhost:8181/ocsp

    Signature Algorithm: sha1WithRSAEncryption
        87:63:a4:64:33:66:a6:41:a2:75:71:6a:53:2f:2b:31:92:74:
        67:f1:f3:a9:cd:4a:89:d5:7e:49:5b:86:3e:38:c3:ac:cb:64:
        97:04:a2:35:8e:51:44:03:16:96:03:cf:d8:d8:15:85:9d:16:
        81:2d:8c:04:e2:db:c2:1c:9c:55:5e:6a:65:8f:51:c3:6f:d5:
        8f:d6:37:2b:c4:d1:44:4d:c9:a4:88:06:2f:05:61:c4:a7:ba:
        f4:72:ae:17:06:1f:e3:66:19:de:e6:9c:a4:e3:40:14:86:f6:
        56:17:b2:90:8c:a8:2f:91:39:b3:78:fc:60:7d:26:ac:ae:19:
        1b:2b:ea:97:cb:d4:20:a9:95:c7:64:ff:04:50:df:06:0c:6d:
        dd:d6:3f:d0:2e:d3:c3:a3:37:97:0b:b2:54:98:b0:7a:d6:6c:
        d9:73:c9:d0:74:14:da:98:5e:e3:39:d9:fb:a4:00:47:36:8a:
        d0:1d:ab:37:5c:83:83:a5:81:c2:85:61:f5:16:fc:50:1a:55:
        d1:15:de:a7:48:a6:de:7c:ee:f3:84:dd:5a:e1:ac:11:ca:cd:
        90:61:de:8f:21:a7:8b:35:c5:4f:1f:a4:0b:f6:d6:4c:8e:ed:
        3b:8c:ea:e5:dd:57:fa:85:3a:ba:b2:f2:ec:25:86:59:cb:66:
        36:ec:46:04
-----BEGIN CERTIFICATE-----
MIIEXTCCA0WgAwIBAgIBATANBgkqhkiG9w0BAQUFADCBjTELMAkGA1UEBhMCQkUx
FzAVBgNVBAgMDlZsYWFtcy1CcmFiYW50MRAwDgYDVQQKDAdTaWVtZW5zMSgwJgYD
VQQLDB9TaWVtZW5zIElUIFNvbHV0aW9ucyAmIFNlcnZpY2VzMSkwJwYDVQQDDCBT
SVMgSW50ZXJtZWRpYXRlIENBIE5vbiBPdmVybGFwMjAeFw0xMDA2MDkwNzI2MzZa
Fw0xMTA2MDkwNzI2MzZaMH4xCzAJBgNVBAYTAkJFMRcwFQYDVQQIDA5WbGFhbXMt
QnJhYmFudDEQMA4GA1UECgwHU2llbWVuczEoMCYGA1UECwwfU2llbWVucyBJVCBT
b2x1dGlvbnMgJiBTZXJ2aWNlczEaMBgGA1UEAwwRTklISUk9MDcwMDAwMDAxMDEw
ggEiMA0GCSqGSIb3DQEBAQUAA4IBDwAwggEKAoIBAQCjq+EX0C52XZp/0nrsQhEN
SsWbwr2QiaPb6QVgKhnA27lEdUkrr+TXc9sqi1sRU4UqYyFDpKex1YUHuP/ggWLc
fQ868RWDnh3SxdiLef7Dlu6bfNqRBUTCB/aMn3EJLxS7RL5Qs2d/OmlcLmt/ZP6T
rSaKqBzsjuF1AUUA+4xvsu+WRPgouIqEOR4WSl1O2pEiwxMH4/CpA6+BQIvwT97E
FcrPzjPXn1vhOL44zOcQKiMj31BFmJZkDWS+7ecl0gnUk3ukOYl9z1NoQrH5wLV3
gGDimSa9u9WjPlbongj2XQ1zBb2kCUMirIUHT24WcB4AIKlPvHh/+r4pQU4ffsXh
AgMBAAGjgdUwgdIwDgYDVR0PAQH/BAQDAgeAMB0GA1UdDgQWBBTR3MXw2AaM3S8r
TJ9tE++lMHX6fTAfBgNVHSMEGDAWgBTxohLPSMmo6ockCumt8GzmAFg9FjATBgNV
HSUEDDAKBggrBgEFBQcDAjAzBgNVHR8ELDAqMCigJqAkhiJodHRwOi8vbG9jYWxo
b3N0OjgxODEvc2lzaW50Y2EuY3JsMDYGCCsGAQUFBwEBBCowKDAmBggrBgEFBQcw
AYYaaHR0cDovL2xvY2FsaG9zdDo4MTgxL29jc3AwDQYJKoZIhvcNAQEFBQADggEB
AIdjpGQzZqZBonVxalMvKzGSdGfx86nNSonVfklbhj44w6zLZJcEojWOUUQDFpYD
z9jYFYWdFoEtjATi28IcnFVeamWPUcNv1Y/WNyvE0URNyaSIBi8FYcSnuvRyrhcG
H+NmGd7mnKTjQBSG9lYXspCMqC+RObN4/GB9JqyuGRsr6pfL1CCplcdk/wRQ3wYM
bd3WP9Au08OjN5cLslSYsHrWbNlzydB0FNqYXuM52fukAEc2itAdqzdcg4OlgcKF
YfUW/FAaVdEV3qdIpt587vOE3VrhrBHKzZBh3o8hp4s1xU8fpAv21kyO7TuM6uXd
V/qFOrqy8uwlhlnLZjbsRgQ=
-----END CERTIFICATE-----
